Certificate:
    Data:
        Version: 3 (0x2)
        Serial Number: 11112384737930418722 (0x9a371f0b0fd09a22)
    Signature Algorithm: sha256WithRSAEncryption
        Issuer: C=BR, ST=DF, O=Governo Federal, OU=CTIR, CN=www.gov.br
        Validity
            Not Before: Nov 16 22:47:46 2020 GMT
            Not After : Nov 16 22:47:46 2023 GMT
        Subject: C=BR, ST=DF, O=Governo Federal, OU=CTIR, CN=www.gov.br
        Subject Public Key Info:
            Public Key Algorithm: rsaEncryption
                Public-Key: (2048 bit)
                Modulus:
                    00:aa:47:ef:cc:cd:e5:99:21:f0:f3:d4:d7:03:a8:
                    be:1b:68:0e:68:3b:29:5b:3f:2f:ed:f3:02:03:ad:
                    88:29:e1:33:58:7c:6e:ff:7f:3d:ed:d0:18:e3:9d:
                    61:df:59:23:03:ad:9c:18:06:8a:94:a2:e6:aa:de:
                    63:ae:3f:76:5d:68:8a:ed:7a:4e:42:10:4b:84:76:
                    7c:fd:aa:ed:23:18:e6:99:11:87:d4:2d:c1:c0:ad:
                    8c:a0:28:66:b2:70:66:88:24:ad:22:8f:b4:57:5c:
                    a1:a6:53:d7:4e:e8:9a:95:21:0b:4d:89:52:8d:b3:
                    45:d1:6d:0a:ef:eb:f5:64:0c:1b:b5:f2:48:fe:f5:
                    62:d3:7a:5c:e9:76:f9:a5:4b:b4:65:50:e3:b5:41:
                    ce:4d:04:35:54:04:f1:d5:6f:4f:0e:eb:11:58:f9:
                    bc:56:be:ec:2e:f6:d5:fd:b4:59:8b:01:21:9a:4f:
                    d7:2d:3d:ec:75:23:7f:e0:56:c5:1d:27:0e:5d:8a:
                    67:34:52:4d:0a:fe:b3:f3:de:4b:76:fa:8a:c8:1d:
                    0e:41:b2:c8:92:89:8f:c2:ff:d5:a9:43:87:ec:01:
                    93:a8:92:94:37:97:a9:ef:ee:0e:09:c8:a3:ef:e8:
                    94:39:c1:10:10:7a:9d:86:d0:9a:8e:a8:89:01:bb:
                    f1:97
                Exponent: 65537 (0x10001)
        X509v3 extensions:
            X509v3 Subject Key Identifier: 
                D4:97:AA:B6:F2:35:61:EC:38:74:4E:BA:C2:84:5D:E6:C6:85:10:B0
            X509v3 Authority Key Identifier: 
                keyid:D4:97:AA:B6:F2:35:61:EC:38:74:4E:BA:C2:84:5D:E6:C6:85:10:B0

            X509v3 Basic Constraints: 
                CA:TRUE
    Signature Algorithm: sha256WithRSAEncryption
         7f:fc:aa:d0:3b:d5:41:e0:71:3e:a9:a7:19:23:67:37:05:09:
         64:cb:b3:f0:14:f3:b4:e4:f2:9b:1a:ae:6e:03:bb:c7:6e:eb:
         cd:5d:e3:63:66:5e:0d:90:1c:5f:31:42:3e:c5:8c:70:a8:b6:
         ec:9a:c8:d2:dd:33:2d:a4:fa:97:b8:d5:bd:c3:12:28:41:c5:
         e0:53:51:76:dd:65:7d:95:ce:01:34:6d:e9:59:17:90:0c:38:
         88:f7:0a:88:ab:c5:5c:7f:60:16:01:ff:1b:d4:9c:69:52:60:
         77:6e:2f:47:c3:e4:73:fa:db:63:2f:fb:f7:12:fc:c2:e8:04:
         8d:97:10:5b:ff:ad:c6:c7:72:8d:90:95:9f:27:1a:0c:e4:70:
         4a:eb:cd:bd:52:c8:4e:2e:e8:91:35:61:d5:fd:82:fa:3c:27:
         59:ce:4d:89:56:b1:b0:33:44:bd:55:1d:46:3f:e3:c4:a5:c5:
         87:4d:00:4f:ba:69:cf:f6:8d:ad:ab:85:88:ff:36:db:d2:de:
         52:a0:f2:88:7d:dc:0d:f4:b6:60:3f:aa:2a:45:d2:ca:13:26:
         28:2a:07:2e:72:8e:44:6a:57:c5:87:8a:1c:45:79:60:d4:f7:
         fc:e8:a4:29:a1:a0:e4:1c:60:9a:96:c9:76:62:4c:b9:5c:55:
         a7:79:a2:2e
-----BEGIN CERTIFICATE-----
MIIDgzCCAmugAwIBAgIJAJo3HwsP0JoiMA0GCSqGSIb3DQEBCwUAMFgxCzAJBgNV
BAYTAkJSMQswCQYDVQQIDAJERjEYMBYGA1UECgwPR292ZXJubyBGZWRlcmFsMQ0w
CwYDVQQLDARDVElSMRMwEQYDVQQDDAp3d3cuZ292LmJyMB4XDTIwMTExNjIyNDc0
NloXDTIzMTExNjIyNDc0NlowWDELMAkGA1UEBhMCQlIxCzAJBgNVBAgMAkRGMRgw
FgYDVQQKDA9Hb3Zlcm5vIEZlZGVyYWwxDTALBgNVBAsMBENUSVIxEzARBgNVBAMM
Cnd3dy5nb3YuYnIwggEiMA0GCSqGSIb3DQEBAQUAA4IBDwAwggEKAoIBAQCqR+/M
zeWZIfDz1NcDqL4baA5oOylbPy/t8wIDrYgp4TNYfG7/fz3t0BjjnWHfWSMDrZwY
BoqUouaq3mOuP3ZdaIrtek5CEEuEdnz9qu0jGOaZEYfULcHArYygKGaycGaIJK0i
j7RXXKGmU9dO6JqVIQtNiVKNs0XRbQrv6/VkDBu18kj+9WLTelzpdvmlS7RlUOO1
Qc5NBDVUBPHVb08O6xFY+bxWvuwu9tX9tFmLASGaT9ctPex1I3/gVsUdJw5dimc0
Uk0K/rPz3kt2+orIHQ5BssiSiY/C/9WpQ4fsAZOokpQ3l6nv7g4JyKPv6JQ5wRAQ
ep2G0JqOqIkBu/GXAgMBAAGjUDBOMB0GA1UdDgQWBBTUl6q28jVh7Dh0TrrChF3m
xoUQsDAfBgNVHSMEGDAWgBTUl6q28jVh7Dh0TrrChF3mxoUQsDAMBgNVHRMEBTAD
AQH/MA0GCSqGSIb3DQEBCwUAA4IBAQB//KrQO9VB4HE+qacZI2c3BQlky7PwFPO0
5PKbGq5uA7vHbuvNXeNjZl4NkBxfMUI+xYxwqLbsmsjS3TMtpPqXuNW9wxIoQcXg
U1F23WV9lc4BNG3pWReQDDiI9wqIq8Vcf2AWAf8b1JxpUmB3bi9Hw+Rz+ttjL/v3
EvzC6ASNlxBb/63Gx3KNkJWfJxoM5HBK6829UshOLuiRNWHV/YL6PCdZzk2JVrGw
M0S9VR1GP+PEpcWHTQBPumnP9o2tq4WI/zbb0t5SoPKIfdwN9LZgP6oqRdLKEyYo
Kgcuco5EalfFh4ocRXlg1Pf86KQpoaDkHGCalsl2Yky5XFWneaIu
-----END CERTIFICATE-----
