Certificate:
    Data:
        Version: 3 (0x2)
        Serial Number: 11761416065315676628 (0xa338f198c4b6a1d4)
    Signature Algorithm: sha256WithRSAEncryption
        Issuer: C=BR, ST=PR, O=UTFPR, CN=utfpr.edu.br/emailAddress=reitoria@utfpr.edu.br
        Validity
            Not Before: Aug  3 17:46:19 2021 GMT
            Not After : Aug  3 17:46:19 2022 GMT
        Subject: C=BR, ST=PR, L=Santa Helena, O=UTFPR-SH, CN=sh.utfpr.edu.br
        Subject Public Key Info:
            Public Key Algorithm: rsaEncryption
                Public-Key: (2048 bit)
                Modulus:
                    00:b8:4c:c7:de:cd:51:28:d5:dc:6f:38:f1:d1:56:
                    d0:d6:d0:29:fe:70:89:94:86:af:22:cb:ea:17:a8:
                    1b:a5:2f:d4:81:5b:f4:04:97:49:bd:44:89:18:ec:
                    6f:a3:ad:54:e5:7b:38:16:24:b5:69:b0:a8:33:ca:
                    9d:3b:43:61:91:23:2c:78:70:c8:c5:47:db:a3:46:
                    54:f2:ad:d0:44:8b:8b:e0:74:ac:51:31:0a:98:d5:
                    fa:9a:a7:83:41:b5:af:9d:d6:24:c2:3f:72:79:6f:
                    31:5e:8e:60:af:28:ae:b2:24:46:5f:20:92:99:ab:
                    93:da:71:62:c8:26:e4:66:b7:92:dc:65:38:6d:74:
                    fa:be:52:9d:0e:38:de:b5:ae:90:2a:e4:8d:43:5b:
                    5d:15:64:3a:31:c5:8a:55:b7:5a:d4:68:09:bc:a1:
                    c6:ac:62:9d:46:c2:88:a0:0c:e4:20:91:4e:52:a9:
                    f3:c1:01:60:d4:e3:34:3e:ed:6f:24:99:ce:2c:c6:
                    a3:80:d9:99:19:99:16:20:da:7b:a8:6e:40:e4:2e:
                    df:35:72:d0:80:d1:c3:64:00:41:c4:23:27:c9:46:
                    d0:f0:b1:f4:7e:37:cb:1a:69:8e:8a:d4:34:48:8b:
                    f9:27:44:46:f3:e1:bb:60:ed:83:83:04:22:03:ef:
                    e0:27
                Exponent: 65537 (0x10001)
        X509v3 extensions:
            X509v3 Basic Constraints: 
                CA:FALSE
            Netscape Comment: 
                OpenSSL Generated Certificate
            X509v3 Subject Key Identifier: 
                16:0B:FD:48:06:96:C9:F5:EE:EF:FC:B7:C7:82:63:FC:71:E1:40:B3
            X509v3 Authority Key Identifier: 
                keyid:88:99:3D:6F:0B:B2:19:4D:4D:7C:66:E7:C6:63:D9:08:0A:64:51:50

    Signature Algorithm: sha256WithRSAEncryption
         89:be:82:73:8e:3d:75:b0:8d:b2:b3:fa:7c:0a:35:b3:8d:62:
         40:e8:84:03:e2:46:c7:88:b9:b5:42:fa:62:66:2e:06:3c:bd:
         7e:de:77:d9:97:92:9b:73:76:ee:c8:33:eb:4f:c3:f3:ed:f0:
         2c:2c:26:a8:3b:24:1f:eb:f6:ca:ec:d1:f4:51:a0:1e:c0:e0:
         62:5f:a9:f7:f8:0e:75:81:d6:28:f3:49:11:7c:ed:e8:50:6a:
         03:f9:1e:ab:cb:94:64:7e:46:1a:e0:00:a6:6c:a0:70:d8:9e:
         7b:ca:2f:46:25:8a:0d:05:85:f9:45:2c:10:a9:18:73:56:1b:
         5a:cf:25:c7:82:aa:2c:3d:03:b3:d5:a8:3f:49:99:29:3b:de:
         4b:e4:4c:c2:20:90:a0:69:64:72:0d:32:5f:e7:99:2b:e7:0c:
         15:74:5b:a2:bb:00:be:38:e5:be:23:dd:78:39:79:e2:fb:64:
         f1:d8:b6:70:28:61:b9:9f:f2:3e:12:07:b6:cf:85:9f:ca:16:
         49:70:9e:46:92:c7:23:b3:0b:cc:d2:2d:61:07:34:59:85:8d:
         d9:56:82:86:c9:35:ed:e2:56:16:a9:19:9d:90:b3:0a:48:61:
         54:d1:69:eb:8f:d5:22:d7:00:ca:cb:90:69:3d:77:e5:be:ba:
         bd:70:2c:9e
-----BEGIN CERTIFICATE-----
MIIDwzCCAqugAwIBAgIJAKM48ZjEtqHUMA0GCSqGSIb3DQEBCwUAMGcxCzAJBgNV
BAYTAkJSMQswCQYDVQQIDAJQUjEOMAwGA1UECgwFVVRGUFIxFTATBgNVBAMMDHV0
ZnByLmVkdS5icjEkMCIGCSqGSIb3DQEJARYVcmVpdG9yaWFAdXRmcHIuZWR1LmJy
MB4XDTIxMDgwMzE3NDYxOVoXDTIyMDgwMzE3NDYxOVowXjELMAkGA1UEBhMCQlIx
CzAJBgNVBAgMAlBSMRUwEwYDVQQHDAxTYW50YSBIZWxlbmExETAPBgNVBAoMCFVU
RlBSLVNIMRgwFgYDVQQDDA9zaC51dGZwci5lZHUuYnIwggEiMA0GCSqGSIb3DQEB
AQUAA4IBDwAwggEKAoIBAQC4TMfezVEo1dxvOPHRVtDW0Cn+cImUhq8iy+oXqBul
L9SBW/QEl0m9RIkY7G+jrVTlezgWJLVpsKgzyp07Q2GRIyx4cMjFR9ujRlTyrdBE
i4vgdKxRMQqY1fqap4NBta+d1iTCP3J5bzFejmCvKK6yJEZfIJKZq5PacWLIJuRm
t5LcZThtdPq+Up0OON61rpAq5I1DW10VZDoxxYpVt1rUaAm8ocasYp1GwoigDOQg
kU5SqfPBAWDU4zQ+7W8kmc4sxqOA2ZkZmRYg2nuobkDkLt81ctCA0cNkAEHEIyfJ
RtDwsfR+N8saaY6K1DRIi/knREbz4btg7YODBCID7+AnAgMBAAGjezB5MAkGA1Ud
EwQCMAAwLAYJYIZIAYb4QgENBB8WHU9wZW5TU0wgR2VuZXJhdGVkIENlcnRpZmlj
YXRlMB0GA1UdDgQWBBQWC/1IBpbJ9e7v/LfHgmP8ceFAszAfBgNVHSMEGDAWgBSI
mT1vC7IZTU18ZufGY9kICmRRUDANBgkqhkiG9w0BAQsFAAOCAQEAib6Cc449dbCN
srP6fAo1s41iQOiEA+JGx4i5tUL6YmYuBjy9ft532ZeSm3N27sgz60/D8+3wLCwm
qDskH+v2yuzR9FGgHsDgYl+p9/gOdYHWKPNJEXzt6FBqA/keq8uUZH5GGuAApmyg
cNiee8ovRiWKDQWF+UUsEKkYc1YbWs8lx4KqLD0Ds9WoP0mZKTveS+RMwiCQoGlk
cg0yX+eZK+cMFXRborsAvjjlviPdeDl54vtk8di2cChhuZ/yPhIHts+Fn8oWSXCe
RpLHI7MLzNItYQc0WYWN2VaChsk17eJWFqkZnZCzCkhhVNFp64/VItcAysuQaT13
5b66vXAsng==
-----END CERTIFICATE-----
