Certificate:
    Data:
        Version: 3 (0x2)
        Serial Number: 11761416065315676625 (0xa338f198c4b6a1d1)
    Signature Algorithm: sha256WithRSAEncryption
        Issuer: C=BR, ST=PR, O=UTFPR, CN=utfpr.edu.br/emailAddress=reitoria@utfpr.edu.br
        Validity
            Not Before: Aug  3 17:45:02 2021 GMT
            Not After : Aug  3 17:45:02 2022 GMT
        Subject: C=BR, ST=PR, L=Guarapuava, O=UTFPR-GP, CN=gp.utfpr.edu.br
        Subject Public Key Info:
            Public Key Algorithm: rsaEncryption
                Public-Key: (2048 bit)
                Modulus:
                    00:f1:3c:57:d3:bc:f5:cd:7e:43:e8:cb:75:fe:b3:
                    14:c8:ab:c8:3e:77:29:18:bd:c5:ac:e4:37:e0:c7:
                    74:4d:73:9e:3e:0a:48:36:b2:45:44:a6:d0:6b:22:
                    ce:e7:0f:49:3a:e4:20:8c:60:a0:2b:1f:54:2d:85:
                    af:2d:dd:97:23:18:3b:46:a1:69:54:8a:b1:b7:23:
                    f8:b7:26:9e:3c:18:74:6f:9b:37:39:b8:c6:6f:6c:
                    ba:86:83:33:56:58:ae:36:11:ff:87:cd:92:c3:ed:
                    45:1c:54:3f:86:c3:9d:aa:de:18:2e:0d:2c:f3:da:
                    8b:ce:a2:00:62:31:39:cd:ee:24:21:49:1e:7d:1f:
                    09:97:86:16:c5:06:62:42:d5:eb:ba:1d:1d:a4:41:
                    f8:f3:af:44:a2:90:ce:49:58:94:51:b2:e5:cb:a1:
                    74:9a:7e:51:88:84:93:cb:2c:4e:65:89:a7:a5:39:
                    71:80:87:21:e2:aa:5b:b4:94:65:b0:a5:d0:08:d5:
                    2a:72:0e:8d:d1:61:b5:9b:8a:d8:7f:22:df:48:0b:
                    e7:d4:d3:35:6b:da:f4:fe:fb:a4:4f:aa:4b:3b:82:
                    6e:f8:1a:79:21:c7:72:d9:b0:58:0b:97:66:7c:75:
                    0a:9c:c3:95:e6:55:c6:22:10:4b:bd:12:91:ae:73:
                    65:b9
                Exponent: 65537 (0x10001)
        X509v3 extensions:
            X509v3 Basic Constraints: 
                CA:FALSE
            Netscape Comment: 
                OpenSSL Generated Certificate
            X509v3 Subject Key Identifier: 
                FA:07:F8:3C:01:1D:2E:04:07:04:4D:81:DD:3A:B1:94:6F:12:CB:46
            X509v3 Authority Key Identifier: 
                keyid:88:99:3D:6F:0B:B2:19:4D:4D:7C:66:E7:C6:63:D9:08:0A:64:51:50

    Signature Algorithm: sha256WithRSAEncryption
         35:ca:60:dd:78:f5:d6:a6:ca:e5:4d:be:72:0a:89:45:00:ff:
         86:ef:68:a1:12:1d:f0:f0:db:65:0c:da:3f:2a:70:49:6c:f4:
         18:96:03:0a:c7:cf:ae:b2:61:52:88:57:58:17:a1:27:0e:b8:
         36:11:78:47:80:96:ac:e7:c1:7f:49:32:e3:75:4a:23:df:5f:
         75:e3:30:96:3f:04:c0:c5:6c:d3:10:67:30:b0:14:21:f7:6d:
         7a:60:b5:02:1b:40:2c:d3:7d:b6:d4:db:11:66:c4:16:85:85:
         88:9f:d4:d1:0b:9a:b5:b1:ac:3a:36:e7:e3:b0:8f:57:55:30:
         3f:ae:ec:71:9b:e1:ed:89:38:4f:d5:3d:6e:e5:f3:b2:0d:bd:
         af:65:0e:b5:94:c3:83:e2:3d:c8:24:c0:ab:e8:2f:cf:23:59:
         1b:4d:42:5b:1d:a1:b5:4f:53:d7:83:5f:3a:dc:cc:8d:07:e1:
         7e:f9:85:3c:f8:81:ed:7f:f2:8f:21:57:10:0d:ca:62:ae:fc:
         06:88:4e:13:d8:b7:71:09:c5:40:f4:71:04:70:5d:c9:90:3d:
         65:f1:34:71:bf:10:e8:a2:4d:b8:d8:b5:42:7d:c7:65:18:a2:
         5b:84:9c:53:73:5b:8d:52:c3:b6:86:5d:8a:d8:d3:ff:46:65:
         e0:9a:96:46
-----BEGIN CERTIFICATE-----
MIIDwTCCAqmgAwIBAgIJAKM48ZjEtqHRMA0GCSqGSIb3DQEBCwUAMGcxCzAJBgNV
BAYTAkJSMQswCQYDVQQIDAJQUjEOMAwGA1UECgwFVVRGUFIxFTATBgNVBAMMDHV0
ZnByLmVkdS5icjEkMCIGCSqGSIb3DQEJARYVcmVpdG9yaWFAdXRmcHIuZWR1LmJy
MB4XDTIxMDgwMzE3NDUwMloXDTIyMDgwMzE3NDUwMlowXDELMAkGA1UEBhMCQlIx
CzAJBgNVBAgMAlBSMRMwEQYDVQQHDApHdWFyYXB1YXZhMREwDwYDVQQKDAhVVEZQ
Ui1HUDEYMBYGA1UEAwwPZ3AudXRmcHIuZWR1LmJyMIIBIjANBgkqhkiG9w0BAQEF
AAOCAQ8AMIIBCgKCAQEA8TxX07z1zX5D6Mt1/rMUyKvIPncpGL3FrOQ34Md0TXOe
PgpINrJFRKbQayLO5w9JOuQgjGCgKx9ULYWvLd2XIxg7RqFpVIqxtyP4tyaePBh0
b5s3ObjGb2y6hoMzVliuNhH/h82Sw+1FHFQ/hsOdqt4YLg0s89qLzqIAYjE5ze4k
IUkefR8Jl4YWxQZiQtXruh0dpEH4869EopDOSViUUbLly6F0mn5RiISTyyxOZYmn
pTlxgIch4qpbtJRlsKXQCNUqcg6N0WG1m4rYfyLfSAvn1NM1a9r0/vukT6pLO4Ju
+Bp5Icdy2bBYC5dmfHUKnMOV5lXGIhBLvRKRrnNluQIDAQABo3sweTAJBgNVHRME
AjAAMCwGCWCGSAGG+EIBDQQfFh1PcGVuU1NMIEdlbmVyYXRlZCBDZXJ0aWZpY2F0
ZTAdBgNVHQ4EFgQU+gf4PAEdLgQHBE2B3TqxlG8Sy0YwHwYDVR0jBBgwFoAUiJk9
bwuyGU1NfGbnxmPZCApkUVAwDQYJKoZIhvcNAQELBQADggEBADXKYN149damyuVN
vnIKiUUA/4bvaKESHfDw22UM2j8qcEls9BiWAwrHz66yYVKIV1gXoScOuDYReEeA
lqznwX9JMuN1SiPfX3XjMJY/BMDFbNMQZzCwFCH3bXpgtQIbQCzTfbbU2xFmxBaF
hYif1NELmrWxrDo25+Owj1dVMD+u7HGb4e2JOE/VPW7l87INva9lDrWUw4PiPcgk
wKvoL88jWRtNQlsdobVPU9eDXzrczI0H4X75hTz4ge1/8o8hVxANymKu/AaIThPY
t3EJxUD0cQRwXcmQPWXxNHG/EOiiTbjYtUJ9x2UYoluEnFNzW41Sw7aGXYrY0/9G
ZeCalkY=
-----END CERTIFICATE-----
