Certificate:
    Data:
        Version: 3 (0x2)
        Serial Number: 11761416065315676627 (0xa338f198c4b6a1d3)
    Signature Algorithm: sha256WithRSAEncryption
        Issuer: C=BR, ST=PR, O=UTFPR, CN=utfpr.edu.br/emailAddress=reitoria@utfpr.edu.br
        Validity
            Not Before: Aug  3 17:45:55 2021 GMT
            Not After : Aug  3 17:45:55 2022 GMT
        Subject: C=BR, ST=PR, L=Ponta Grossa, O=UTFPR-PG, CN=pg.utfpr.edu.br
        Subject Public Key Info:
            Public Key Algorithm: rsaEncryption
                Public-Key: (2048 bit)
                Modulus:
                    00:c8:26:1a:61:d2:4a:24:73:11:df:e5:81:b2:9c:
                    49:1f:1f:04:39:ba:d4:bc:f6:b1:13:f9:b9:de:0c:
                    e5:1c:ac:32:a6:bd:3a:2b:3b:2a:22:d8:39:94:9f:
                    c0:cd:a9:1f:9f:cb:69:ef:43:51:aa:d4:dc:ea:9e:
                    c4:ab:a7:fb:f2:14:38:96:f0:e7:f8:75:a2:b8:2a:
                    ba:12:72:0a:a5:dd:01:71:e2:a9:33:2b:ab:d6:d5:
                    9c:cb:33:ba:15:54:9b:dc:c9:2f:fd:e7:d5:ef:57:
                    a6:8a:d5:72:cd:2d:de:90:26:d1:f4:8d:6d:f9:24:
                    cf:b7:fa:dd:53:7e:42:f4:12:df:16:7f:56:4e:36:
                    92:72:d7:fa:af:e4:ff:75:f1:e8:c4:e7:56:8d:17:
                    8a:8e:86:d0:cc:8b:77:13:5d:0b:f5:1a:f8:a1:eb:
                    de:b5:a4:72:b8:2f:23:1c:a8:68:fe:da:53:8b:f8:
                    e6:c6:dc:e7:b1:51:77:02:0b:01:e1:7e:ab:9f:01:
                    2d:7b:d0:a7:3d:bf:c9:1e:2b:7c:32:ea:8a:2b:72:
                    90:b7:2a:13:f2:92:12:22:9c:5c:34:8d:06:74:3b:
                    8b:27:49:e5:3a:99:0e:e4:1f:a6:a1:b2:ca:03:2a:
                    ff:a3:60:d2:ee:c4:04:ef:f2:f2:e2:ed:1c:88:35:
                    8d:6f
                Exponent: 65537 (0x10001)
        X509v3 extensions:
            X509v3 Basic Constraints: 
                CA:FALSE
            Netscape Comment: 
                OpenSSL Generated Certificate
            X509v3 Subject Key Identifier: 
                65:3A:54:08:C7:10:87:06:C1:57:A5:55:02:63:63:F1:4F:01:CF:6D
            X509v3 Authority Key Identifier: 
                keyid:88:99:3D:6F:0B:B2:19:4D:4D:7C:66:E7:C6:63:D9:08:0A:64:51:50

    Signature Algorithm: sha256WithRSAEncryption
         58:e8:f9:5a:3f:d0:21:7d:ab:94:9d:ad:87:4f:8c:e7:ce:de:
         c9:1f:99:73:35:fa:da:12:22:f1:35:06:cf:1c:27:7f:c9:64:
         70:87:31:8e:22:a5:b3:e6:74:99:76:c0:17:61:63:13:3c:db:
         ac:53:2e:e1:56:c5:dd:de:9a:f5:57:6f:30:2b:ee:71:58:22:
         64:c6:82:44:62:22:ad:e3:13:47:c2:09:1e:02:f1:35:69:e7:
         82:36:09:ad:22:87:3f:5c:e4:09:ac:fb:7a:e3:d6:78:10:72:
         c3:12:f8:24:f6:11:0a:4c:fb:f1:95:94:d2:27:4e:49:5f:0a:
         40:7e:00:bf:c3:30:e7:25:38:b8:bd:a8:ab:3e:10:07:ce:0d:
         cb:5b:a1:f6:2e:5f:3a:99:76:83:b6:07:12:65:16:cb:e1:2f:
         e7:71:8d:79:ea:ce:ad:c8:96:56:4c:42:b8:9c:c1:cd:86:55:
         7c:10:35:49:d1:d5:32:4f:8c:d1:49:8a:fa:80:d6:2e:a4:9e:
         36:71:64:a1:e0:5c:d4:88:ab:e2:92:3a:f8:f1:9d:2f:77:43:
         e5:1e:a2:de:27:28:3c:85:c1:10:70:c7:63:14:97:56:63:10:
         29:b3:f4:59:52:f9:06:f0:c8:d9:04:f8:1c:47:ab:0b:7e:50:
         e0:46:e9:b1
-----BEGIN CERTIFICATE-----
MIIDwzCCAqugAwIBAgIJAKM48ZjEtqHTMA0GCSqGSIb3DQEBCwUAMGcxCzAJBgNV
BAYTAkJSMQswCQYDVQQIDAJQUjEOMAwGA1UECgwFVVRGUFIxFTATBgNVBAMMDHV0
ZnByLmVkdS5icjEkMCIGCSqGSIb3DQEJARYVcmVpdG9yaWFAdXRmcHIuZWR1LmJy
MB4XDTIxMDgwMzE3NDU1NVoXDTIyMDgwMzE3NDU1NVowXjELMAkGA1UEBhMCQlIx
CzAJBgNVBAgMAlBSMRUwEwYDVQQHDAxQb250YSBHcm9zc2ExETAPBgNVBAoMCFVU
RlBSLVBHMRgwFgYDVQQDDA9wZy51dGZwci5lZHUuYnIwggEiMA0GCSqGSIb3DQEB
AQUAA4IBDwAwggEKAoIBAQDIJhph0kokcxHf5YGynEkfHwQ5utS89rET+bneDOUc
rDKmvTorOyoi2DmUn8DNqR+fy2nvQ1Gq1NzqnsSrp/vyFDiW8Of4daK4KroScgql
3QFx4qkzK6vW1ZzLM7oVVJvcyS/959XvV6aK1XLNLd6QJtH0jW35JM+3+t1TfkL0
Et8Wf1ZONpJy1/qv5P918ejE51aNF4qOhtDMi3cTXQv1Gvih6961pHK4LyMcqGj+
2lOL+ObG3OexUXcCCwHhfqufAS170Kc9v8keK3wy6oorcpC3KhPykhIinFw0jQZ0
O4snSeU6mQ7kH6ahssoDKv+jYNLuxATv8vLi7RyINY1vAgMBAAGjezB5MAkGA1Ud
EwQCMAAwLAYJYIZIAYb4QgENBB8WHU9wZW5TU0wgR2VuZXJhdGVkIENlcnRpZmlj
YXRlMB0GA1UdDgQWBBRlOlQIxxCHBsFXpVUCY2PxTwHPbTAfBgNVHSMEGDAWgBSI
mT1vC7IZTU18ZufGY9kICmRRUDANBgkqhkiG9w0BAQsFAAOCAQEAWOj5Wj/QIX2r
lJ2th0+M587eyR+ZczX62hIi8TUGzxwnf8lkcIcxjiKls+Z0mXbAF2FjEzzbrFMu
4VbF3d6a9VdvMCvucVgiZMaCRGIireMTR8IJHgLxNWnngjYJrSKHP1zkCaz7euPW
eBBywxL4JPYRCkz78ZWU0idOSV8KQH4Av8Mw5yU4uL2oqz4QB84Ny1uh9i5fOpl2
g7YHEmUWy+Ev53GNeerOrciWVkxCuJzBzYZVfBA1SdHVMk+M0UmK+oDWLqSeNnFk
oeBc1Iir4pI6+PGdL3dD5R6i3icoPIXBEHDHYxSXVmMQKbP0WVL5BvDI2QT4HEer
C35Q4EbpsQ==
-----END CERTIFICATE-----
