Certificate:
    Data:
        Version: 3 (0x2)
        Serial Number: 17950135217078100504 (0xf91bb0e0442b6218)
    Signature Algorithm: sha256WithRSAEncryption
        Issuer: C=BR, ST=S\xC3\xA3o Paulo, O=VIA VAREJO S/A, CN=*.casasbahia.com.br
        Validity
            Not Before: Aug  3 17:14:00 2021 GMT
            Not After : Aug  3 17:14:00 2022 GMT
        Subject: C=BR, ST=PR, L=Curitiba, O=Shopping, CN=quiosque
        Subject Public Key Info:
            Public Key Algorithm: rsaEncryption
                Public-Key: (2048 bit)
                Modulus:
                    00:b6:d9:a8:55:a2:8d:c8:1e:d5:fa:80:c8:9d:48:
                    c3:3a:68:ce:84:c1:e6:85:ca:a1:7e:79:f6:0d:c5:
                    68:b5:4d:92:10:2b:e4:b0:23:ae:b6:a1:6c:95:b8:
                    35:c6:f0:a8:21:e9:28:a0:60:5c:e1:c4:a1:25:96:
                    69:a9:43:43:4c:d1:93:66:ae:61:ab:0a:d4:09:d5:
                    5d:9f:2a:93:33:d0:89:c3:7c:ef:ee:03:22:e1:03:
                    bc:f4:47:41:28:f0:e3:1f:c2:32:ec:67:f4:31:c2:
                    63:90:71:1a:fb:32:27:8f:01:c7:aa:8e:c6:48:8f:
                    1e:42:cf:31:3f:75:23:3d:02:4e:40:7c:ad:fe:d2:
                    c5:3d:78:2f:b8:e1:90:ad:31:69:17:7e:62:6c:de:
                    e5:ce:10:e9:5e:c4:b1:66:16:cf:05:7b:7c:00:4b:
                    57:f3:18:99:05:0b:32:0b:ee:ec:58:3b:9f:ed:7f:
                    e1:ad:a1:52:30:4a:dc:58:29:cc:7a:60:8b:68:47:
                    bb:21:c0:f9:be:c5:38:3a:a1:b8:84:43:70:e4:61:
                    d0:25:16:8a:0a:72:79:dc:66:18:2f:a2:b7:26:85:
                    90:e1:c4:29:2f:f0:ec:0f:52:3d:44:89:d5:79:dc:
                    10:2c:1a:b8:0d:29:ec:fd:5d:77:32:bb:f7:a5:6f:
                    55:53
                Exponent: 65537 (0x10001)
        X509v3 extensions:
            X509v3 Basic Constraints: 
                CA:FALSE
            Netscape Comment: 
                OpenSSL Generated Certificate
            X509v3 Subject Key Identifier: 
                2A:C2:76:27:D7:09:FD:C4:A9:9A:29:A9:03:95:F0:5F:66:EE:49:E5
            X509v3 Authority Key Identifier: 
                keyid:CE:B1:AB:B9:A3:FC:4D:B5:E0:F3:3D:47:2E:C8:3B:75:35:30:73:C2

    Signature Algorithm: sha256WithRSAEncryption
         a8:a2:21:8a:85:07:fe:89:e9:04:b4:71:68:9b:5f:03:0e:47:
         a7:e0:bd:ff:c8:a4:2e:cf:6a:66:25:76:fe:0b:12:45:0c:c5:
         d5:f5:bf:14:cf:a9:2a:f1:c5:9e:81:e8:7e:00:da:c7:17:1c:
         a7:21:e0:c7:5f:07:f4:1c:a7:3e:05:11:e5:cf:71:34:b9:d0:
         6b:39:8c:36:08:c5:44:5d:90:f0:2b:9b:bb:df:7e:38:5e:cb:
         85:cc:ab:ac:1b:ef:11:ad:98:e4:98:9d:cd:38:50:6f:17:65:
         16:e0:1b:24:e9:74:eb:a0:ba:f6:fb:76:53:4a:cb:87:cb:34:
         fb:bc:db:74:5d:a7:37:2d:16:a7:bb:91:be:3e:4c:a2:5f:34:
         2d:24:7b:fa:b2:03:cf:60:ce:8d:b8:38:19:48:8a:01:f8:17:
         d9:28:d7:89:7f:94:db:93:2c:58:7a:c3:60:58:b7:02:70:5f:
         47:84:77:08:b2:50:10:f9:6a:60:be:1f:66:36:ca:a6:2e:56:
         7d:2e:8f:72:2c:0e:c1:dc:5d:80:59:d0:c3:5d:88:7c:90:b4:
         85:17:ff:ea:11:e7:cf:65:7a:ed:eb:a2:89:cb:64:e0:7f:74:
         12:6d:b6:20:fc:6e:46:51:67:d4:af:bb:d2:57:67:a1:f0:fa:
         c6:f6:75:e0
-----BEGIN CERTIFICATE-----
MIIDsDCCApigAwIBAgIJAPkbsOBEK2IYMA0GCSqGSIb3DQEBCwUAMF8xCzAJBgNV
BAYTAkJSMRkwFwYDVQQIDBBTXHhDM1x4QTNvIFBhdWxvMRcwFQYDVQQKDA5WSUEg
VkFSRUpPIFMvQTEcMBoGA1UEAwwTKi5jYXNhc2JhaGlhLmNvbS5icjAeFw0yMTA4
MDMxNzE0MDBaFw0yMjA4MDMxNzE0MDBaMFMxCzAJBgNVBAYTAkJSMQswCQYDVQQI
DAJQUjERMA8GA1UEBwwIQ3VyaXRpYmExETAPBgNVBAoMCFNob3BwaW5nMREwDwYD
VQQDDAhxdWlvc3F1ZTCCASIwDQYJKoZIhvcNAQEBBQADggEPADCCAQoCggEBALbZ
qFWijcge1fqAyJ1IwzpozoTB5oXKoX559g3FaLVNkhAr5LAjrrahbJW4NcbwqCHp
KKBgXOHEoSWWaalDQ0zRk2auYasK1AnVXZ8qkzPQicN87+4DIuEDvPRHQSjw4x/C
Muxn9DHCY5BxGvsyJ48Bx6qOxkiPHkLPMT91Iz0CTkB8rf7SxT14L7jhkK0xaRd+
Ymze5c4Q6V7EsWYWzwV7fABLV/MYmQULMgvu7Fg7n+1/4a2hUjBK3FgpzHpgi2hH
uyHA+b7FODqhuIRDcORh0CUWigpyedxmGC+ityaFkOHEKS/w7A9SPUSJ1XncECwa
uA0p7P1ddzK796VvVVMCAwEAAaN7MHkwCQYDVR0TBAIwADAsBglghkgBhvhCAQ0E
HxYdT3BlblNTTCBHZW5lcmF0ZWQgQ2VydGlmaWNhdGUwHQYDVR0OBBYEFCrCdifX
Cf3EqZopqQOV8F9m7knlMB8GA1UdIwQYMBaAFM6xq7mj/E214PM9Ry7IO3U1MHPC
MA0GCSqGSIb3DQEBCwUAA4IBAQCooiGKhQf+iekEtHFom18DDken4L3/yKQuz2pm
JXb+CxJFDMXV9b8Uz6kq8cWegeh+ANrHFxynIeDHXwf0HKc+BRHlz3E0udBrOYw2
CMVEXZDwK5u73344XsuFzKusG+8RrZjkmJ3NOFBvF2UW4Bsk6XTroLr2+3ZTSsuH
yzT7vNt0Xac3LRanu5G+PkyiXzQtJHv6sgPPYM6NuDgZSIoB+BfZKNeJf5TbkyxY
esNgWLcCcF9HhHcIslAQ+Wpgvh9mNsqmLlZ9Lo9yLA7B3F2AWdDDXYh8kLSFF//q
EefPZXrt66KJy2Tgf3QSbbYg/G5GUWfUr7vSV2eh8PrG9nXg
-----END CERTIFICATE-----
