Certificate:
    Data:
        Version: 3 (0x2)
        Serial Number: 11761416065315676629 (0xa338f198c4b6a1d5)
    Signature Algorithm: sha256WithRSAEncryption
        Issuer: C=BR, ST=PR, O=UTFPR, CN=utfpr.edu.br/emailAddress=reitoria@utfpr.edu.br
        Validity
            Not Before: Aug  3 17:46:39 2021 GMT
            Not After : Aug  3 17:46:39 2022 GMT
        Subject: C=BR, ST=PR, L=Campo Mourao, O=UTFPR-CM, CN=cm.utfpr.edu.br
        Subject Public Key Info:
            Public Key Algorithm: rsaEncryption
                Public-Key: (2048 bit)
                Modulus:
                    00:b6:e5:13:73:be:d6:a8:a3:7f:a4:fd:86:51:03:
                    0c:7a:ac:92:d3:bf:a5:e4:d9:4e:d1:4b:5b:77:a3:
                    97:46:73:cc:46:f4:fd:9b:41:8e:35:63:8d:46:78:
                    40:9f:21:e9:75:84:a6:68:33:f2:94:4f:bb:0b:23:
                    78:8c:28:64:92:f9:b0:ca:99:d3:11:2b:da:72:c4:
                    78:d6:b4:4a:13:3c:ab:cc:93:56:b3:c7:95:f2:6f:
                    23:99:08:91:22:5a:bb:29:ba:8a:9c:7a:c1:dd:b9:
                    4b:52:1f:5e:03:86:21:8f:06:ab:43:44:33:67:16:
                    98:50:4e:f0:c6:69:5d:81:cc:1a:b9:43:e9:89:b1:
                    76:16:ef:90:73:a4:f4:4d:e3:e5:05:44:b3:19:bc:
                    dd:5f:0c:0a:0d:80:58:8b:12:fb:16:1e:8f:2e:3f:
                    4c:88:73:7d:6e:a8:3c:9b:7d:c6:17:7e:67:77:57:
                    8f:4d:73:3f:a2:61:e3:bc:c8:8b:95:9d:d9:40:0d:
                    2f:1d:38:3f:62:67:41:95:b1:2a:22:fa:1e:73:92:
                    c1:22:d9:34:4c:28:95:70:e3:13:22:a5:84:d8:3d:
                    c9:a9:53:7c:88:bc:53:41:51:55:a3:dc:b2:3c:05:
                    64:9e:82:e5:a0:32:b3:8f:2d:c9:77:48:2e:50:e2:
                    e1:45
                Exponent: 65537 (0x10001)
        X509v3 extensions:
            X509v3 Basic Constraints: 
                CA:FALSE
            Netscape Comment: 
                OpenSSL Generated Certificate
            X509v3 Subject Key Identifier: 
                4B:74:73:51:22:D9:F8:DF:0A:EE:75:3C:DA:F0:86:E9:FF:B0:93:51
            X509v3 Authority Key Identifier: 
                keyid:88:99:3D:6F:0B:B2:19:4D:4D:7C:66:E7:C6:63:D9:08:0A:64:51:50

    Signature Algorithm: sha256WithRSAEncryption
         14:b5:d0:24:ed:76:a7:d0:12:4e:c9:9e:3a:47:96:95:48:19:
         3c:00:20:ba:b2:14:bd:7a:f9:3f:c6:70:48:4f:48:00:b2:8e:
         4f:ac:dc:62:40:07:96:5f:52:1c:c9:75:fc:b3:16:2f:6d:94:
         89:57:28:9f:94:ea:47:2b:77:36:85:69:2f:36:79:c0:ea:5c:
         3c:68:a8:10:4c:f0:42:34:65:92:be:d9:5c:f1:a2:5d:65:92:
         4c:b6:0b:82:2b:47:6c:6e:4f:0d:80:cf:04:99:ed:73:b5:c1:
         f3:66:cb:a3:bd:00:d3:73:bc:3e:f9:16:e7:3b:f5:49:cf:4a:
         53:60:e5:ec:8e:d3:2e:1d:04:e6:26:8c:f3:82:e2:71:1b:bd:
         28:87:6c:96:56:1d:b2:10:96:95:34:e1:6b:b3:a1:2b:fa:4e:
         59:62:be:5c:99:b7:b6:00:b9:ca:65:a0:aa:b1:77:ff:ba:f9:
         32:e0:e3:fc:ac:42:fd:2a:9d:5f:1a:59:b5:28:aa:a1:b9:61:
         3b:29:a2:e1:58:10:76:f2:64:c3:80:1f:51:e7:8e:99:ce:ee:
         df:2e:ba:56:14:e3:4e:5c:c4:0e:64:8f:b6:55:23:7e:75:2b:
         c4:a8:a0:68:3d:4e:aa:da:d5:be:f3:c6:cb:0a:e0:89:38:01:
         b2:a2:ef:27
-----BEGIN CERTIFICATE-----
MIIDwzCCAqugAwIBAgIJAKM48ZjEtqHVMA0GCSqGSIb3DQEBCwUAMGcxCzAJBgNV
BAYTAkJSMQswCQYDVQQIDAJQUjEOMAwGA1UECgwFVVRGUFIxFTATBgNVBAMMDHV0
ZnByLmVkdS5icjEkMCIGCSqGSIb3DQEJARYVcmVpdG9yaWFAdXRmcHIuZWR1LmJy
MB4XDTIxMDgwMzE3NDYzOVoXDTIyMDgwMzE3NDYzOVowXjELMAkGA1UEBhMCQlIx
CzAJBgNVBAgMAlBSMRUwEwYDVQQHDAxDYW1wbyBNb3VyYW8xETAPBgNVBAoMCFVU
RlBSLUNNMRgwFgYDVQQDDA9jbS51dGZwci5lZHUuYnIwggEiMA0GCSqGSIb3DQEB
AQUAA4IBDwAwggEKAoIBAQC25RNzvtaoo3+k/YZRAwx6rJLTv6Xk2U7RS1t3o5dG
c8xG9P2bQY41Y41GeECfIel1hKZoM/KUT7sLI3iMKGSS+bDKmdMRK9pyxHjWtEoT
PKvMk1azx5XybyOZCJEiWrspuoqcesHduUtSH14DhiGPBqtDRDNnFphQTvDGaV2B
zBq5Q+mJsXYW75BzpPRN4+UFRLMZvN1fDAoNgFiLEvsWHo8uP0yIc31uqDybfcYX
fmd3V49Ncz+iYeO8yIuVndlADS8dOD9iZ0GVsSoi+h5zksEi2TRMKJVw4xMipYTY
PcmpU3yIvFNBUVWj3LI8BWSeguWgMrOPLcl3SC5Q4uFFAgMBAAGjezB5MAkGA1Ud
EwQCMAAwLAYJYIZIAYb4QgENBB8WHU9wZW5TU0wgR2VuZXJhdGVkIENlcnRpZmlj
YXRlMB0GA1UdDgQWBBRLdHNRItn43wrudTza8Ibp/7CTUTAfBgNVHSMEGDAWgBSI
mT1vC7IZTU18ZufGY9kICmRRUDANBgkqhkiG9w0BAQsFAAOCAQEAFLXQJO12p9AS
TsmeOkeWlUgZPAAgurIUvXr5P8ZwSE9IALKOT6zcYkAHll9SHMl1/LMWL22UiVco
n5TqRyt3NoVpLzZ5wOpcPGioEEzwQjRlkr7ZXPGiXWWSTLYLgitHbG5PDYDPBJnt
c7XB82bLo70A03O8PvkW5zv1Sc9KU2Dl7I7TLh0E5iaM84LicRu9KIdsllYdshCW
lTTha7OhK/pOWWK+XJm3tgC5ymWgqrF3/7r5MuDj/KxC/SqdXxpZtSiqoblhOymi
4VgQdvJkw4AfUeeOmc7u3y66VhTjTlzEDmSPtlUjfnUrxKigaD1OqtrVvvPGywrg
iTgBsqLvJw==
-----END CERTIFICATE-----
