Certificate:
    Data:
        Version: 3 (0x2)
        Serial Number: 11761416065315676626 (0xa338f198c4b6a1d2)
    Signature Algorithm: sha256WithRSAEncryption
        Issuer: C=BR, ST=PR, O=UTFPR, CN=utfpr.edu.br/emailAddress=reitoria@utfpr.edu.br
        Validity
            Not Before: Aug  3 17:45:35 2021 GMT
            Not After : Aug  3 17:45:35 2022 GMT
        Subject: C=BR, ST=PR, L=Pato Branco, O=UTFPR-PB, CN=pb.utfpr.edu.br
        Subject Public Key Info:
            Public Key Algorithm: rsaEncryption
                Public-Key: (2048 bit)
                Modulus:
                    00:e5:6d:59:a2:a5:fc:4b:bc:88:e6:c4:77:f4:8e:
                    e6:0b:8b:ea:25:d9:8b:88:90:a7:0b:9e:ef:e5:a6:
                    47:38:e2:05:98:6b:c4:32:73:4d:7a:fc:ba:a5:61:
                    75:ab:84:6a:c3:c8:f1:39:30:56:1b:cf:6f:e0:11:
                    3d:12:d7:78:bc:b4:c4:86:36:55:e9:ea:63:ec:a0:
                    bb:2f:ad:18:84:d8:f1:c1:ea:c6:77:38:95:85:a7:
                    f2:6a:89:72:75:f5:bf:e4:c5:00:47:e2:9e:cf:15:
                    db:e5:17:17:61:dc:28:52:db:95:e1:b4:b3:c6:46:
                    27:0d:ba:fd:35:e4:4b:a6:b4:d7:5a:42:e3:70:58:
                    b5:32:6c:ab:38:bf:a9:3a:f3:fb:44:02:d4:19:48:
                    a4:b5:f0:be:8e:e6:0f:fa:83:2e:a0:2e:1d:f7:29:
                    8e:16:13:09:3a:80:fd:ff:36:a9:7e:97:07:34:f4:
                    50:ff:2b:8f:28:f5:0a:99:29:51:35:50:fc:12:f6:
                    ab:59:26:bd:6a:1a:07:6a:e0:8e:23:a7:78:6a:ed:
                    a7:e0:eb:70:4e:c0:59:c8:6d:f2:9c:9d:5f:b0:e4:
                    3f:8a:b2:40:05:30:36:9e:6f:c7:7b:78:17:99:85:
                    27:66:61:4e:a0:39:2a:23:1c:1b:33:75:9c:ea:87:
                    b4:b1
                Exponent: 65537 (0x10001)
        X509v3 extensions:
            X509v3 Basic Constraints: 
                CA:FALSE
            Netscape Comment: 
                OpenSSL Generated Certificate
            X509v3 Subject Key Identifier: 
                67:96:F1:CA:1A:12:97:3E:3F:67:12:4E:CE:F3:D5:D4:CC:3B:30:68
            X509v3 Authority Key Identifier: 
                keyid:88:99:3D:6F:0B:B2:19:4D:4D:7C:66:E7:C6:63:D9:08:0A:64:51:50

    Signature Algorithm: sha256WithRSAEncryption
         7d:55:a7:c4:1f:f3:78:16:52:80:60:b2:21:2a:46:96:23:e3:
         e7:18:85:1e:f4:c9:fc:f7:84:4e:4b:e3:c9:3b:be:ff:dc:ad:
         42:12:5c:25:d3:c7:e9:71:64:d1:44:03:82:7d:08:67:48:d3:
         70:b3:37:c1:18:ca:f2:7f:35:c7:74:6f:67:71:cf:5a:5a:19:
         3b:8f:a8:af:f3:7d:42:fe:a6:eb:1a:f5:54:f3:c1:af:17:47:
         fc:c9:47:c9:bf:b0:30:c3:b4:d8:2d:ef:17:ad:3d:17:8a:dd:
         e9:08:a8:8c:0b:d9:7e:4f:52:b1:65:ad:12:0d:e8:18:98:82:
         58:13:e1:60:2e:bb:ce:00:9b:33:08:3e:74:55:74:19:4b:e4:
         37:aa:58:eb:2e:87:37:6e:8e:15:2c:db:28:bc:24:38:fb:52:
         4b:80:54:cc:9f:8d:71:94:cf:c8:29:de:02:1b:fb:ee:06:9f:
         24:58:5f:b1:72:11:b5:79:17:ba:77:e0:56:c2:c8:60:dd:3a:
         91:43:ce:d6:37:c6:54:69:50:95:a6:c0:81:fe:4c:46:14:e5:
         ea:7d:04:2b:d4:61:1b:3c:65:87:1b:9a:73:9b:32:76:cb:9f:
         06:25:88:34:7a:bb:07:6f:95:de:08:0a:80:9a:b5:67:4b:c4:
         f7:0a:24:39
-----BEGIN CERTIFICATE-----
MIIDwjCCAqqgAwIBAgIJAKM48ZjEtqHSMA0GCSqGSIb3DQEBCwUAMGcxCzAJBgNV
BAYTAkJSMQswCQYDVQQIDAJQUjEOMAwGA1UECgwFVVRGUFIxFTATBgNVBAMMDHV0
ZnByLmVkdS5icjEkMCIGCSqGSIb3DQEJARYVcmVpdG9yaWFAdXRmcHIuZWR1LmJy
MB4XDTIxMDgwMzE3NDUzNVoXDTIyMDgwMzE3NDUzNVowXTELMAkGA1UEBhMCQlIx
CzAJBgNVBAgMAlBSMRQwEgYDVQQHDAtQYXRvIEJyYW5jbzERMA8GA1UECgwIVVRG
UFItUEIxGDAWBgNVBAMMD3BiLnV0ZnByLmVkdS5icjCCASIwDQYJKoZIhvcNAQEB
BQADggEPADCCAQoCggEBAOVtWaKl/Eu8iObEd/SO5guL6iXZi4iQpwue7+WmRzji
BZhrxDJzTXr8uqVhdauEasPI8TkwVhvPb+ARPRLXeLy0xIY2VenqY+yguy+tGITY
8cHqxnc4lYWn8mqJcnX1v+TFAEfins8V2+UXF2HcKFLbleG0s8ZGJw26/TXkS6a0
11pC43BYtTJsqzi/qTrz+0QC1BlIpLXwvo7mD/qDLqAuHfcpjhYTCTqA/f82qX6X
BzT0UP8rjyj1CpkpUTVQ/BL2q1kmvWoaB2rgjiOneGrtp+DrcE7AWcht8pydX7Dk
P4qyQAUwNp5vx3t4F5mFJ2ZhTqA5KiMcGzN1nOqHtLECAwEAAaN7MHkwCQYDVR0T
BAIwADAsBglghkgBhvhCAQ0EHxYdT3BlblNTTCBHZW5lcmF0ZWQgQ2VydGlmaWNh
dGUwHQYDVR0OBBYEFGeW8coaEpc+P2cSTs7z1dTMOzBoMB8GA1UdIwQYMBaAFIiZ
PW8LshlNTXxm58Zj2QgKZFFQMA0GCSqGSIb3DQEBCwUAA4IBAQB9VafEH/N4FlKA
YLIhKkaWI+PnGIUe9Mn894ROS+PJO77/3K1CElwl08fpcWTRRAOCfQhnSNNwszfB
GMryfzXHdG9ncc9aWhk7j6iv831C/qbrGvVU88GvF0f8yUfJv7Aww7TYLe8XrT0X
it3pCKiMC9l+T1KxZa0SDegYmIJYE+FgLrvOAJszCD50VXQZS+Q3qljrLoc3bo4V
LNsovCQ4+1JLgFTMn41xlM/IKd4CG/vuBp8kWF+xchG1eRe6d+BWwshg3TqRQ87W
N8ZUaVCVpsCB/kxGFOXqfQQr1GEbPGWHG5pzmzJ2y58GJYg0ersHb5XeCAqAmrVn
S8T3CiQ5
-----END CERTIFICATE-----
