Certificate:
    Data:
        Version: 3 (0x2)
        Serial Number: 17950135217078100503 (0xf91bb0e0442b6217)
    Signature Algorithm: sha256WithRSAEncryption
        Issuer: C=BR, ST=S\xC3\xA3o Paulo, O=VIA VAREJO S/A, CN=*.casasbahia.com.br
        Validity
            Not Before: Aug  3 17:07:33 2021 GMT
            Not After : Aug  2 17:07:33 2024 GMT
        Subject: C=BR, ST=S\xC3\xA3o Paulo, O=VIA VAREJO S/A, CN=*.casasbahia.com.br
        Subject Public Key Info:
            Public Key Algorithm: rsaEncryption
                Public-Key: (2048 bit)
                Modulus:
                    00:c3:66:17:34:aa:33:31:8b:3a:7e:96:63:68:14:
                    f1:07:31:f9:8f:0d:d7:f7:4b:82:8a:e1:75:d6:f0:
                    1f:57:94:8b:38:c4:20:61:75:59:fd:f0:6e:90:e0:
                    de:75:87:bc:77:6a:24:55:a3:57:94:32:26:f9:df:
                    51:5d:99:79:e1:28:8b:02:33:f8:90:2f:70:70:22:
                    6c:44:8b:c2:9c:a9:7c:4b:41:c4:a4:99:a9:36:8c:
                    b4:e9:a6:29:ca:21:57:ac:4c:d2:5d:8e:0e:2b:1b:
                    9a:c9:a6:42:af:a8:99:95:8e:0e:1c:25:6c:69:7f:
                    19:d8:ce:9b:18:c8:c7:88:31:1b:b1:0e:4e:5c:0b:
                    21:6c:57:7e:f8:96:09:de:33:e9:13:4d:ff:eb:60:
                    94:2e:54:f8:2d:05:c9:bf:87:a1:f8:53:72:4a:c8:
                    7a:92:31:e3:bd:12:c7:74:f9:e6:9e:9e:5b:82:18:
                    e2:b2:eb:15:6f:57:5b:c0:22:7b:ff:6c:3f:52:7e:
                    bd:de:15:08:65:bc:1e:cb:1a:72:2d:80:00:0b:ea:
                    72:a1:99:67:eb:bc:04:bf:39:4b:25:69:cf:c3:40:
                    11:d2:d5:71:2b:d5:a2:0c:61:29:03:57:63:64:36:
                    7e:a2:30:9f:7c:e4:2c:e3:9e:c7:01:d8:75:4e:2f:
                    44:fb
                Exponent: 65537 (0x10001)
        X509v3 extensions:
            X509v3 Subject Key Identifier: 
                CE:B1:AB:B9:A3:FC:4D:B5:E0:F3:3D:47:2E:C8:3B:75:35:30:73:C2
            X509v3 Authority Key Identifier: 
                keyid:CE:B1:AB:B9:A3:FC:4D:B5:E0:F3:3D:47:2E:C8:3B:75:35:30:73:C2

            X509v3 Basic Constraints: 
                CA:TRUE
    Signature Algorithm: sha256WithRSAEncryption
         49:7a:8c:b5:79:e4:66:15:0c:a1:fa:a1:42:f4:21:21:06:10:
         45:86:16:18:69:af:c5:b0:51:69:25:bb:4b:fe:3a:ff:97:0b:
         43:b6:e1:40:49:b1:ad:4c:a5:c2:94:31:56:44:a5:05:c6:6f:
         c7:fa:a5:d8:db:84:7e:4b:bc:59:14:f0:3c:49:f0:eb:b9:63:
         b0:5b:c2:d7:00:65:11:8a:ae:09:a8:7c:44:5e:c4:5b:37:a0:
         fd:f9:db:6a:c1:0d:9d:aa:3b:ef:53:4d:99:6e:55:e5:35:23:
         33:d7:89:e5:73:d6:5d:69:42:09:9a:c1:20:dc:c2:6b:56:f4:
         c1:ef:3d:3d:bb:91:65:e3:8f:6b:7d:d4:70:14:75:80:31:d9:
         6f:04:5e:ac:89:ec:58:6e:ba:5b:3b:f1:d7:bc:48:b8:5d:a5:
         4a:65:9b:88:ba:13:f5:71:0c:fb:89:3b:95:aa:84:01:d8:6b:
         12:51:5d:97:7a:8b:1d:0b:9c:8d:03:34:af:8a:2c:12:86:12:
         18:ab:09:b0:a0:38:29:6c:35:85:a8:41:4b:0f:a4:af:c1:1f:
         b2:a0:ed:49:ed:5e:5b:5a:5a:2a:0a:87:58:00:d1:96:42:1a:
         8b:2a:c5:bd:9f:eb:e3:1f:ea:2c:35:26:01:e9:59:93:cd:42:
         e1:7a:eb:51
-----BEGIN CERTIFICATE-----
MIIDkTCCAnmgAwIBAgIJAPkbsOBEK2IXMA0GCSqGSIb3DQEBCwUAMF8xCzAJBgNV
BAYTAkJSMRkwFwYDVQQIDBBTXHhDM1x4QTNvIFBhdWxvMRcwFQYDVQQKDA5WSUEg
VkFSRUpPIFMvQTEcMBoGA1UEAwwTKi5jYXNhc2JhaGlhLmNvbS5icjAeFw0yMTA4
MDMxNzA3MzNaFw0yNDA4MDIxNzA3MzNaMF8xCzAJBgNVBAYTAkJSMRkwFwYDVQQI
DBBTXHhDM1x4QTNvIFBhdWxvMRcwFQYDVQQKDA5WSUEgVkFSRUpPIFMvQTEcMBoG
A1UEAwwTKi5jYXNhc2JhaGlhLmNvbS5icjCCASIwDQYJKoZIhvcNAQEBBQADggEP
ADCCAQoCggEBAMNmFzSqMzGLOn6WY2gU8Qcx+Y8N1/dLgorhddbwH1eUizjEIGF1
Wf3wbpDg3nWHvHdqJFWjV5QyJvnfUV2ZeeEoiwIz+JAvcHAibESLwpypfEtBxKSZ
qTaMtOmmKcohV6xM0l2ODisbmsmmQq+omZWODhwlbGl/GdjOmxjIx4gxG7EOTlwL
IWxXfviWCd4z6RNN/+tglC5U+C0Fyb+HofhTckrIepIx470Sx3T55p6eW4IY4rLr
FW9XW8Aie/9sP1J+vd4VCGW8Hssaci2AAAvqcqGZZ+u8BL85SyVpz8NAEdLVcSvV
ogxhKQNXY2Q2fqIwn3zkLOOexwHYdU4vRPsCAwEAAaNQME4wHQYDVR0OBBYEFM6x
q7mj/E214PM9Ry7IO3U1MHPCMB8GA1UdIwQYMBaAFM6xq7mj/E214PM9Ry7IO3U1
MHPCMAwGA1UdEwQFMAMBAf8wDQYJKoZIhvcNAQELBQADggEBAEl6jLV55GYVDKH6
oUL0ISEGEEWGFhhpr8WwUWklu0v+Ov+XC0O24UBJsa1MpcKUMVZEpQXGb8f6pdjb
hH5LvFkU8DxJ8Ou5Y7BbwtcAZRGKrgmofERexFs3oP3522rBDZ2qO+9TTZluVeU1
IzPXieVz1l1pQgmawSDcwmtW9MHvPT27kWXjj2t91HAUdYAx2W8EXqyJ7Fhuuls7
8de8SLhdpUplm4i6E/VxDPuJO5WqhAHYaxJRXZd6ix0LnI0DNK+KLBKGEhirCbCg
OClsNYWoQUsPpK/BH7Kg7UntXltaWioKh1gA0ZZCGosqxb2f6+Mf6iw1JgHpWZPN
QuF661E=
-----END CERTIFICATE-----
