Certificate:
    Data:
        Version: 3 (0x2)
        Serial Number: 14442944381427253219 (0xc86fa56495b1ffe3)
    Signature Algorithm: sha256WithRSAEncryption
        Issuer: C=BR, ST=Some-State, O=Havan, CN=www.havan.com.br
        Validity
            Not Before: Nov 16 23:01:34 2020 GMT
            Not After : Nov 16 23:01:34 2023 GMT
        Subject: C=BR, ST=Some-State, O=Havan, CN=www.havan.com.br
        Subject Public Key Info:
            Public Key Algorithm: rsaEncryption
                Public-Key: (2048 bit)
                Modulus:
                    00:b2:c3:83:a5:6c:4a:e5:33:d6:0e:f5:39:a3:ed:
                    f8:6e:43:dd:93:ba:58:ba:ec:9e:c2:ce:e6:bb:a2:
                    e4:1d:99:19:28:22:f5:f7:54:3c:cb:f2:d2:2a:1b:
                    1e:d9:69:4d:6a:cd:84:e1:48:c4:2e:51:bf:65:a1:
                    9e:cc:5d:6d:dc:5a:66:72:31:cb:99:c7:62:eb:32:
                    52:4e:35:75:5e:c5:f5:f7:44:ef:f5:b3:bf:ca:55:
                    99:a2:a3:ad:22:62:ac:ea:84:f5:04:42:d3:6a:6d:
                    9a:85:eb:c6:d4:67:43:ca:92:47:6b:50:f7:12:69:
                    f0:c3:af:fe:0e:65:89:e9:d7:d8:75:7a:24:76:a3:
                    b8:00:5a:35:ba:51:d0:58:c5:b0:34:dd:b6:9e:a4:
                    1a:68:d5:56:02:3d:58:87:7b:cc:c0:e3:cf:43:7e:
                    d7:d3:3c:69:95:dd:53:b2:a1:3b:89:07:d3:fe:a7:
                    b2:8a:80:d7:24:44:4f:d8:b2:d9:74:05:ae:d1:76:
                    82:f5:28:25:fa:79:7f:81:21:e0:d2:86:85:60:40:
                    9a:0c:01:23:e6:d0:f7:f0:16:5a:e7:bd:3e:a7:aa:
                    d1:d8:1a:c8:0e:f7:f2:ae:02:bf:e9:34:87:03:38:
                    db:2e:61:78:10:6b:0f:0b:1e:1a:9a:fc:d9:de:0a:
                    3e:25
                Exponent: 65537 (0x10001)
        X509v3 extensions:
            X509v3 Subject Key Identifier: 
                8B:CD:28:E0:EA:3A:A5:88:0F:04:F2:B5:10:7E:BD:9F:6F:D4:4C:6C
            X509v3 Authority Key Identifier: 
                keyid:8B:CD:28:E0:EA:3A:A5:88:0F:04:F2:B5:10:7E:BD:9F:6F:D4:4C:6C

            X509v3 Basic Constraints: 
                CA:TRUE
    Signature Algorithm: sha256WithRSAEncryption
         1e:6d:31:e6:66:9f:96:0b:b7:ed:96:bf:26:5a:65:a9:90:e9:
         bd:86:b1:8b:27:b0:df:6c:ca:b5:a1:64:19:fd:e9:44:e3:91:
         57:eb:a4:60:b5:0c:7a:d7:a4:62:ea:ba:af:23:c1:c3:6c:2c:
         59:e7:0a:fc:6e:5d:a8:cb:cd:74:f6:78:01:81:3b:f9:14:f2:
         bd:42:92:d8:2e:02:10:a1:ee:99:b2:1b:c8:43:88:7f:18:3a:
         27:3b:4b:42:a3:75:93:c7:02:ce:e3:60:1e:08:61:5c:0a:24:
         07:d2:62:18:7e:4c:53:17:50:a9:2e:22:84:38:a8:3f:0d:7b:
         ca:14:9d:4a:cf:2b:a2:e7:98:84:6d:39:4b:c3:7f:36:4d:da:
         ac:d7:b4:be:df:9c:33:ba:0d:66:b7:fe:68:0f:b2:0d:92:0b:
         d4:71:03:b4:38:da:e3:54:29:f1:b9:86:41:06:30:d7:35:1e:
         21:c8:bc:dd:d6:43:4f:71:21:28:cf:ae:88:b0:4e:82:30:ff:
         3e:c5:d6:05:ca:a7:66:82:ba:19:1c:be:04:5b:e2:af:bd:ad:
         bb:90:b0:12:2b:76:b5:5b:e1:60:fa:25:e3:16:38:44:68:ee:
         4a:15:4f:b7:e3:68:eb:26:1e:08:a3:cb:8f:c8:e3:cb:8d:18:
         05:37:b7:d0
-----BEGIN CERTIFICATE-----
MIIDbTCCAlWgAwIBAgIJAMhvpWSVsf/jMA0GCSqGSIb3DQEBCwUAME0xCzAJBgNV
BAYTAkJSMRMwEQYDVQQIDApTb21lLVN0YXRlMQ4wDAYDVQQKDAVIYXZhbjEZMBcG
A1UEAwwQd3d3LmhhdmFuLmNvbS5icjAeFw0yMDExMTYyMzAxMzRaFw0yMzExMTYy
MzAxMzRaME0xCzAJBgNVBAYTAkJSMRMwEQYDVQQIDApTb21lLVN0YXRlMQ4wDAYD
VQQKDAVIYXZhbjEZMBcGA1UEAwwQd3d3LmhhdmFuLmNvbS5icjCCASIwDQYJKoZI
hvcNAQEBBQADggEPADCCAQoCggEBALLDg6VsSuUz1g71OaPt+G5D3ZO6WLrsnsLO
5rui5B2ZGSgi9fdUPMvy0iobHtlpTWrNhOFIxC5Rv2WhnsxdbdxaZnIxy5nHYusy
Uk41dV7F9fdE7/Wzv8pVmaKjrSJirOqE9QRC02ptmoXrxtRnQ8qSR2tQ9xJp8MOv
/g5lienX2HV6JHajuABaNbpR0FjFsDTdtp6kGmjVVgI9WId7zMDjz0N+19M8aZXd
U7KhO4kH0/6nsoqA1yRET9iy2XQFrtF2gvUoJfp5f4Eh4NKGhWBAmgwBI+bQ9/AW
Wue9Pqeq0dgayA738q4Cv+k0hwM42y5heBBrDwseGpr82d4KPiUCAwEAAaNQME4w
HQYDVR0OBBYEFIvNKODqOqWIDwTytRB+vZ9v1ExsMB8GA1UdIwQYMBaAFIvNKODq
OqWIDwTytRB+vZ9v1ExsMAwGA1UdEwQFMAMBAf8wDQYJKoZIhvcNAQELBQADggEB
AB5tMeZmn5YLt+2WvyZaZamQ6b2GsYsnsN9syrWhZBn96UTjkVfrpGC1DHrXpGLq
uq8jwcNsLFnnCvxuXajLzXT2eAGBO/kU8r1CktguAhCh7pmyG8hDiH8YOic7S0Kj
dZPHAs7jYB4IYVwKJAfSYhh+TFMXUKkuIoQ4qD8Ne8oUnUrPK6LnmIRtOUvDfzZN
2qzXtL7fnDO6DWa3/mgPsg2SC9RxA7Q42uNUKfG5hkEGMNc1HiHIvN3WQ09xISjP
roiwToIw/z7F1gXKp2aCuhkcvgRb4q+9rbuQsBIrdrVb4WD6JeMWOERo7koVT7fj
aOsmHgijy4/I48uNGAU3t9A=
-----END CERTIFICATE-----
