Certificate:
    Data:
        Version: 3 (0x2)
        Serial Number: 15340919630512683381 (0xd4e5e51fd0867975)
    Signature Algorithm: sha256WithRSAEncryption
        Issuer: C=BR, ST=Some-State, O=Havan, CN=www.havan.com.br
        Validity
            Not Before: Nov 16 23:01:52 2020 GMT
            Not After : Nov 16 23:01:52 2023 GMT
        Subject: C=BR, ST=Some-State, O=Havan, CN=www.havan.com.br
        Subject Public Key Info:
            Public Key Algorithm: rsaEncryption
                Public-Key: (2048 bit)
                Modulus:
                    00:f7:99:80:dc:74:4a:c9:56:80:70:e2:36:d9:9d:
                    6c:6f:ed:92:c2:c3:b5:d2:c7:c1:1e:6b:8e:96:77:
                    ec:08:db:e1:4b:c5:cb:a4:e9:1d:32:85:0e:61:bd:
                    2f:a5:0a:a7:ed:58:06:b5:08:73:f5:e0:79:38:f2:
                    18:33:27:97:51:ca:38:0e:63:fa:ab:1d:91:bd:6a:
                    b4:91:84:7f:f3:96:52:77:3b:35:df:13:63:82:39:
                    61:f3:c8:09:3a:e3:ab:1a:06:01:d0:12:00:d4:55:
                    72:98:3a:2b:4a:b7:1c:38:d6:a6:3c:f2:71:60:db:
                    4c:c4:a7:12:d0:83:a6:e4:1c:46:ec:64:46:c0:1e:
                    18:5e:f2:dd:6e:16:d4:92:01:7e:73:4c:89:e9:b1:
                    ae:4d:d9:8a:d9:92:62:0f:76:20:bd:d2:9f:68:28:
                    89:30:1f:cb:00:f8:20:0d:d8:91:f3:d2:be:c9:4c:
                    b5:93:8b:8a:e3:ef:0e:ea:f6:6b:21:be:42:5d:ce:
                    c5:5b:33:1d:f4:df:69:9b:d9:41:7c:4c:60:bb:43:
                    1a:92:0f:0c:29:78:7e:53:ab:5f:db:ba:16:f0:5b:
                    6d:4d:ce:7c:f7:cb:69:c4:2f:02:df:af:7a:f8:ef:
                    c8:ca:2b:92:51:07:0f:07:4a:40:15:90:55:52:d4:
                    82:6b
                Exponent: 65537 (0x10001)
        X509v3 extensions:
            X509v3 Subject Key Identifier: 
                E2:8D:96:C1:A6:BC:12:17:37:EF:2F:35:AC:15:3B:5D:CC:65:71:A3
            X509v3 Authority Key Identifier: 
                keyid:E2:8D:96:C1:A6:BC:12:17:37:EF:2F:35:AC:15:3B:5D:CC:65:71:A3

            X509v3 Basic Constraints: 
                CA:TRUE
    Signature Algorithm: sha256WithRSAEncryption
         08:40:62:0a:1e:f2:ce:30:95:c2:94:e4:f5:31:d7:1e:89:60:
         7a:2f:d1:bc:16:b7:86:45:48:4c:2a:97:f8:2e:e3:d7:0d:b1:
         48:a4:1e:31:b9:67:32:96:7b:4a:d7:13:e5:97:03:75:45:7c:
         04:82:d6:01:e9:9d:bd:cb:82:f8:2a:4a:3a:cd:82:cb:42:70:
         62:5f:1b:e6:56:8d:88:fe:f3:9e:8d:4d:73:5b:d9:27:ae:42:
         3f:8d:44:f5:ac:17:0a:13:dc:1a:b3:8e:ce:6a:23:8f:10:9c:
         1d:0e:48:6d:54:10:26:09:9a:f2:3d:86:09:eb:0c:f6:99:21:
         0a:6e:d5:3b:85:01:7a:72:18:80:69:f0:c1:c6:a7:fb:04:5c:
         e2:73:ae:1a:be:9a:fe:83:df:5d:03:80:f0:e7:1f:65:c6:4b:
         28:57:d3:ec:b8:08:d2:f0:13:0d:05:19:f6:ed:01:07:a6:d9:
         12:91:21:a7:c1:63:37:2f:4d:99:5d:9e:e8:07:15:2a:27:14:
         7e:cc:c7:75:22:ab:cc:7c:37:7b:22:69:8a:92:cb:42:0e:05:
         fa:5b:2f:fd:e8:4d:a4:e4:0f:3a:f7:53:6f:b8:fe:2b:1e:ff:
         ee:b2:a7:d2:0a:f9:37:78:a9:bf:f0:91:17:d5:e0:60:88:4e:
         fa:d3:4f:b9
-----BEGIN CERTIFICATE-----
MIIDbTCCAlWgAwIBAgIJANTl5R/Qhnl1MA0GCSqGSIb3DQEBCwUAME0xCzAJBgNV
BAYTAkJSMRMwEQYDVQQIDApTb21lLVN0YXRlMQ4wDAYDVQQKDAVIYXZhbjEZMBcG
A1UEAwwQd3d3LmhhdmFuLmNvbS5icjAeFw0yMDExMTYyMzAxNTJaFw0yMzExMTYy
MzAxNTJaME0xCzAJBgNVBAYTAkJSMRMwEQYDVQQIDApTb21lLVN0YXRlMQ4wDAYD
VQQKDAVIYXZhbjEZMBcGA1UEAwwQd3d3LmhhdmFuLmNvbS5icjCCASIwDQYJKoZI
hvcNAQEBBQADggEPADCCAQoCggEBAPeZgNx0SslWgHDiNtmdbG/tksLDtdLHwR5r
jpZ37Ajb4UvFy6TpHTKFDmG9L6UKp+1YBrUIc/XgeTjyGDMnl1HKOA5j+qsdkb1q
tJGEf/OWUnc7Nd8TY4I5YfPICTrjqxoGAdASANRVcpg6K0q3HDjWpjzycWDbTMSn
EtCDpuQcRuxkRsAeGF7y3W4W1JIBfnNMiemxrk3ZitmSYg92IL3Sn2goiTAfywD4
IA3YkfPSvslMtZOLiuPvDur2ayG+Ql3OxVszHfTfaZvZQXxMYLtDGpIPDCl4flOr
X9u6FvBbbU3OfPfLacQvAt+vevjvyMorklEHDwdKQBWQVVLUgmsCAwEAAaNQME4w
HQYDVR0OBBYEFOKNlsGmvBIXN+8vNawVO13MZXGjMB8GA1UdIwQYMBaAFOKNlsGm
vBIXN+8vNawVO13MZXGjMAwGA1UdEwQFMAMBAf8wDQYJKoZIhvcNAQELBQADggEB
AAhAYgoe8s4wlcKU5PUx1x6JYHov0bwWt4ZFSEwql/gu49cNsUikHjG5ZzKWe0rX
E+WXA3VFfASC1gHpnb3LgvgqSjrNgstCcGJfG+ZWjYj+856NTXNb2SeuQj+NRPWs
FwoT3Bqzjs5qI48QnB0OSG1UECYJmvI9hgnrDPaZIQpu1TuFAXpyGIBp8MHGp/sE
XOJzrhq+mv6D310DgPDnH2XGSyhX0+y4CNLwEw0FGfbtAQem2RKRIafBYzcvTZld
nugHFSonFH7Mx3Uiq8x8N3siaYqSy0IOBfpbL/3oTaTkDzr3U2+4/ise/+6yp9IK
+Td4qb/wkRfV4GCITvrTT7k=
-----END CERTIFICATE-----
