Certificate:
    Data:
        Version: 3 (0x2)
        Serial Number: 10015118211360334234 (0x8afcd8f36bada19a)
    Signature Algorithm: sha256WithRSAEncryption
        Issuer: C=BR, ST=Some-State, O=Havan, CN=www.havan.com.br
        Validity
            Not Before: Nov 16 23:02:32 2020 GMT
            Not After : Nov 16 23:02:32 2023 GMT
        Subject: C=BR, ST=Some-State, O=Havan, CN=www.havan.com.br
        Subject Public Key Info:
            Public Key Algorithm: rsaEncryption
                Public-Key: (2048 bit)
                Modulus:
                    00:cc:34:f5:1d:13:a5:6f:8d:d5:33:f3:25:cd:f9:
                    ea:5a:e4:e0:6c:4d:6a:44:20:11:cb:76:99:8c:0c:
                    07:3c:92:ea:a6:b2:3a:84:7e:0e:e4:92:1c:83:65:
                    76:10:a4:00:fc:39:b3:c5:cb:fd:13:cd:fa:ee:13:
                    a9:8b:f2:48:aa:b5:62:b8:c9:28:c4:51:08:0e:92:
                    21:e0:63:7a:f5:5c:1e:de:e1:3b:60:de:e0:ce:b7:
                    cd:fb:46:37:6b:74:27:5e:98:07:b6:57:63:cf:52:
                    df:ca:c9:89:3b:a8:42:c5:ba:e4:02:c5:88:97:fa:
                    db:5a:4d:66:fd:db:a2:10:b1:1a:94:85:83:d9:17:
                    8d:80:37:28:2b:93:df:92:41:ef:e1:2e:a3:95:a7:
                    a6:7c:b5:41:ff:5b:05:f9:b1:f8:30:14:3c:92:4c:
                    57:bf:75:ac:b3:1e:24:fa:b4:9d:21:3d:f2:7f:cd:
                    b0:f3:68:e2:5a:a2:5e:dc:9d:a0:f6:19:0d:b6:90:
                    1f:10:3b:7a:7b:09:05:a1:a8:7f:ac:b6:f9:46:aa:
                    1b:37:02:ef:9f:c1:d2:e8:63:13:e2:41:82:6c:69:
                    f5:5c:a7:9f:94:f2:51:fb:6b:a7:a6:55:ba:72:90:
                    7e:42:40:b9:8c:1d:d1:b7:43:4d:04:d5:f8:90:b4:
                    78:15
                Exponent: 65537 (0x10001)
        X509v3 extensions:
            X509v3 Subject Key Identifier: 
                75:0B:F2:AC:CF:09:15:1A:81:C8:01:BD:43:67:45:AC:A2:A3:C6:60
            X509v3 Authority Key Identifier: 
                keyid:75:0B:F2:AC:CF:09:15:1A:81:C8:01:BD:43:67:45:AC:A2:A3:C6:60

            X509v3 Basic Constraints: 
                CA:TRUE
    Signature Algorithm: sha256WithRSAEncryption
         7e:f8:e2:f1:11:fd:fd:cd:e3:c1:96:2b:6a:55:ce:3a:fd:dc:
         37:b0:2c:ed:99:77:22:56:67:f8:9a:7a:8a:5c:f9:38:7e:5d:
         1b:71:95:36:d8:86:95:e8:8f:5f:a1:9c:69:ff:8b:88:72:88:
         c3:c8:6d:17:3b:6e:9c:57:37:1a:12:fe:50:13:05:0e:e3:65:
         40:44:89:fa:e9:cf:0c:4e:b4:c4:d1:e2:70:20:8d:0e:e2:5e:
         d5:4b:61:de:54:9e:98:6b:6d:25:2b:c3:d5:3b:f6:b7:27:37:
         0c:9c:b9:50:ea:e6:a1:3d:b2:54:78:b2:4e:8a:3e:be:d0:97:
         4d:dd:ba:96:85:3a:61:8f:6e:f6:e6:ee:dd:80:e7:e7:63:e4:
         95:09:72:49:bd:54:bb:57:49:bf:4c:6f:12:74:50:fa:42:1f:
         c8:32:f7:53:a6:15:9d:03:7a:1d:12:8c:35:7b:8f:4c:05:7c:
         92:e2:32:8b:5f:f2:5b:df:7f:66:3b:ec:1e:25:40:1e:3c:7c:
         25:85:2c:60:82:cc:0d:21:f9:72:bc:ac:8c:6f:8a:f9:ee:35:
         2f:a5:c8:a1:9d:92:57:ac:04:30:27:ae:c5:77:4d:6b:78:35:
         41:53:35:1d:1a:83:8e:25:4b:64:c4:3b:1b:15:69:b5:93:be:
         c8:dc:8c:e9
-----BEGIN CERTIFICATE-----
MIIDbTCCAlWgAwIBAgIJAIr82PNrraGaMA0GCSqGSIb3DQEBCwUAME0xCzAJBgNV
BAYTAkJSMRMwEQYDVQQIDApTb21lLVN0YXRlMQ4wDAYDVQQKDAVIYXZhbjEZMBcG
A1UEAwwQd3d3LmhhdmFuLmNvbS5icjAeFw0yMDExMTYyMzAyMzJaFw0yMzExMTYy
MzAyMzJaME0xCzAJBgNVBAYTAkJSMRMwEQYDVQQIDApTb21lLVN0YXRlMQ4wDAYD
VQQKDAVIYXZhbjEZMBcGA1UEAwwQd3d3LmhhdmFuLmNvbS5icjCCASIwDQYJKoZI
hvcNAQEBBQADggEPADCCAQoCggEBAMw09R0TpW+N1TPzJc356lrk4GxNakQgEct2
mYwMBzyS6qayOoR+DuSSHINldhCkAPw5s8XL/RPN+u4TqYvySKq1YrjJKMRRCA6S
IeBjevVcHt7hO2De4M63zftGN2t0J16YB7ZXY89S38rJiTuoQsW65ALFiJf621pN
Zv3bohCxGpSFg9kXjYA3KCuT35JB7+Euo5Wnpny1Qf9bBfmx+DAUPJJMV791rLMe
JPq0nSE98n/NsPNo4lqiXtydoPYZDbaQHxA7ensJBaGof6y2+UaqGzcC75/B0uhj
E+JBgmxp9Vynn5TyUftrp6ZVunKQfkJAuYwd0bdDTQTV+JC0eBUCAwEAAaNQME4w
HQYDVR0OBBYEFHUL8qzPCRUagcgBvUNnRayio8ZgMB8GA1UdIwQYMBaAFHUL8qzP
CRUagcgBvUNnRayio8ZgMAwGA1UdEwQFMAMBAf8wDQYJKoZIhvcNAQELBQADggEB
AH744vER/f3N48GWK2pVzjr93DewLO2ZdyJWZ/iaeopc+Th+XRtxlTbYhpXoj1+h
nGn/i4hyiMPIbRc7bpxXNxoS/lATBQ7jZUBEifrpzwxOtMTR4nAgjQ7iXtVLYd5U
nphrbSUrw9U79rcnNwycuVDq5qE9slR4sk6KPr7Ql03dupaFOmGPbvbm7t2A5+dj
5JUJckm9VLtXSb9MbxJ0UPpCH8gy91OmFZ0Deh0SjDV7j0wFfJLiMotf8lvff2Y7
7B4lQB48fCWFLGCCzA0h+XK8rIxvivnuNS+lyKGdklesBDAnrsV3TWt4NUFTNR0a
g44lS2TEOxsVabWTvsjcjOk=
-----END CERTIFICATE-----
