Certificate:
    Data:
        Version: 3 (0x2)
        Serial Number: 16140649350124588485 (0xdfff1b112e50cdc5)
    Signature Algorithm: sha256WithRSAEncryption
        Issuer: C=BR, ST=Some-State, O=Havan, CN=havan.com.br
        Validity
            Not Before: Nov 16 23:01:12 2020 GMT
            Not After : Nov 16 23:01:12 2023 GMT
        Subject: C=BR, ST=Some-State, O=Havan, CN=havan.com.br
        Subject Public Key Info:
            Public Key Algorithm: rsaEncryption
                Public-Key: (2048 bit)
                Modulus:
                    00:be:4f:08:1f:7f:2e:bc:2f:85:19:5b:aa:1d:f0:
                    82:4c:b6:7c:33:a3:da:f9:9c:40:e0:f9:e5:84:cb:
                    8b:5b:41:e6:2b:13:e5:0e:8b:af:f2:f2:ff:4c:0a:
                    b9:2b:e0:8b:cd:7f:53:49:bb:88:9d:75:47:08:4e:
                    c9:31:0a:a6:0c:5a:0a:b0:0a:1b:78:44:c4:3b:82:
                    28:47:9e:49:87:97:e8:20:4e:21:76:77:79:cf:33:
                    c8:20:ad:fe:fc:e9:71:e3:7f:3f:1a:c9:90:b1:c1:
                    a0:14:4a:58:e8:f6:1c:c1:96:6c:39:44:b4:a4:d9:
                    25:4b:09:52:df:e8:f1:b3:ed:56:44:4a:8a:73:25:
                    b7:09:78:15:4a:66:df:7c:3a:4e:d6:fb:12:61:4f:
                    6d:75:91:af:38:f7:f0:79:b1:6d:0f:d0:18:aa:92:
                    6e:64:67:7e:5e:59:85:00:35:c3:2a:9e:f0:bd:d8:
                    59:69:86:b8:b1:9d:6b:7a:2b:b8:1e:c3:cb:86:f1:
                    f1:79:eb:55:29:81:6e:53:14:fe:9f:ff:c0:61:cc:
                    2a:30:34:6b:2e:b7:76:63:be:3e:c6:4a:80:b5:45:
                    9e:90:a2:2e:57:a4:ca:14:2c:ff:a8:8b:e5:d5:42:
                    10:94:0a:0d:01:ef:de:2f:d8:9e:7e:ac:c5:08:9b:
                    e2:4d
                Exponent: 65537 (0x10001)
        X509v3 extensions:
            X509v3 Subject Key Identifier: 
                E7:99:DB:80:1E:39:E1:C8:8C:0A:CD:52:38:D6:55:99:4A:80:5D:3C
            X509v3 Authority Key Identifier: 
                keyid:E7:99:DB:80:1E:39:E1:C8:8C:0A:CD:52:38:D6:55:99:4A:80:5D:3C

            X509v3 Basic Constraints: 
                CA:TRUE
    Signature Algorithm: sha256WithRSAEncryption
         b6:8f:a9:48:ff:70:69:d8:e8:85:1d:9c:8d:cd:30:80:3a:c4:
         cd:14:8c:78:0b:29:ae:2c:89:c1:11:12:34:b9:a3:c2:98:93:
         99:fe:3e:d6:61:25:45:58:2e:3e:19:f0:bc:4b:fc:76:6d:fa:
         17:b9:5f:47:5e:b5:9b:61:9b:0e:b0:d5:45:27:f7:2d:a5:4b:
         8b:04:92:f9:ee:05:fe:f5:63:0b:dc:bb:41:2a:87:ac:92:bc:
         5c:89:5f:56:60:69:a7:53:b4:a3:73:07:63:ef:d7:7e:c9:91:
         f8:f8:48:95:4d:79:79:70:fb:39:63:d9:f6:f1:d6:01:49:de:
         f5:c6:ae:0b:8a:af:55:8b:28:c7:f5:af:21:f1:69:df:f8:22:
         f2:75:57:85:aa:1f:de:d7:51:44:9a:99:9d:1b:80:fe:98:4c:
         b4:ec:30:a6:4a:ac:36:a3:bb:bd:b9:8f:e6:34:3a:59:a4:ca:
         90:73:50:96:68:c2:1f:42:ea:4a:94:75:3e:fc:2b:c3:87:8a:
         08:8f:60:69:ef:ae:af:5e:42:cf:bb:7c:47:46:13:de:3e:e7:
         c1:f6:5e:4f:65:48:f9:83:8b:7b:6a:97:86:49:7e:5b:7f:5a:
         07:46:8e:29:c1:01:0e:f2:6e:6a:19:ae:8f:4f:a9:cc:c4:49:
         89:e3:03:09
-----BEGIN CERTIFICATE-----
MIIDZTCCAk2gAwIBAgIJAN//GxEuUM3FMA0GCSqGSIb3DQEBCwUAMEkxCzAJBgNV
BAYTAkJSMRMwEQYDVQQIDApTb21lLVN0YXRlMQ4wDAYDVQQKDAVIYXZhbjEVMBMG
A1UEAwwMaGF2YW4uY29tLmJyMB4XDTIwMTExNjIzMDExMloXDTIzMTExNjIzMDEx
MlowSTELMAkGA1UEBhMCQlIxEzARBgNVBAgMClNvbWUtU3RhdGUxDjAMBgNVBAoM
BUhhdmFuMRUwEwYDVQQDDAxoYXZhbi5jb20uYnIwggEiMA0GCSqGSIb3DQEBAQUA
A4IBDwAwggEKAoIBAQC+Twgffy68L4UZW6od8IJMtnwzo9r5nEDg+eWEy4tbQeYr
E+UOi6/y8v9MCrkr4IvNf1NJu4iddUcITskxCqYMWgqwCht4RMQ7gihHnkmHl+gg
TiF2d3nPM8ggrf786XHjfz8ayZCxwaAUSljo9hzBlmw5RLSk2SVLCVLf6PGz7VZE
SopzJbcJeBVKZt98Ok7W+xJhT211ka849/B5sW0P0Biqkm5kZ35eWYUANcMqnvC9
2FlphrixnWt6K7gew8uG8fF561UpgW5TFP6f/8BhzCowNGsut3Zjvj7GSoC1RZ6Q
oi5XpMoULP+oi+XVQhCUCg0B794v2J5+rMUIm+JNAgMBAAGjUDBOMB0GA1UdDgQW
BBTnmduAHjnhyIwKzVI41lWZSoBdPDAfBgNVHSMEGDAWgBTnmduAHjnhyIwKzVI4
1lWZSoBdPDAMBgNVHRMEBTADAQH/MA0GCSqGSIb3DQEBCwUAA4IBAQC2j6lI/3Bp
2OiFHZyNzTCAOsTNFIx4CymuLInBERI0uaPCmJOZ/j7WYSVFWC4+GfC8S/x2bfoX
uV9HXrWbYZsOsNVFJ/ctpUuLBJL57gX+9WML3LtBKoeskrxciV9WYGmnU7Sjcwdj
79d+yZH4+EiVTXl5cPs5Y9n28dYBSd71xq4Liq9ViyjH9a8h8Wnf+CLydVeFqh/e
11FEmpmdG4D+mEy07DCmSqw2o7u9uY/mNDpZpMqQc1CWaMIfQupKlHU+/CvDh4oI
j2Bp766vXkLPu3xHRhPePufB9l5PZUj5g4t7apeGSX5bf1oHRo4pwQEO8m5qGa6P
T6nMxEmJ4wMJ
-----END CERTIFICATE-----
