Certificate:
    Data:
        Version: 3 (0x2)
        Serial Number: 13778067522107266091 (0xbf3587697a8cd42b)
    Signature Algorithm: sha256WithRSAEncryption
        Issuer: C=BR, ST=Some-State, O=Havan, CN=www.havan.com.br
        Validity
            Not Before: Nov 16 23:02:12 2020 GMT
            Not After : Nov 16 23:02:12 2023 GMT
        Subject: C=BR, ST=Some-State, O=Havan, CN=www.havan.com.br
        Subject Public Key Info:
            Public Key Algorithm: rsaEncryption
                Public-Key: (2048 bit)
                Modulus:
                    00:a5:a1:55:71:9a:a1:f8:a6:4f:03:8d:7d:ba:dd:
                    94:aa:dd:25:77:36:bc:38:62:9c:dc:93:52:9c:9a:
                    55:7a:0f:cf:0f:b6:fc:68:d2:cc:9a:b0:77:48:d6:
                    9f:6d:ad:98:ea:3e:38:e6:3b:68:17:9f:40:44:09:
                    1a:0c:e0:1e:b6:e1:50:84:66:54:6f:e9:75:44:77:
                    5f:30:27:68:f5:f9:e3:6f:0b:bb:4a:62:27:10:d3:
                    03:77:63:62:3a:fb:f1:c5:16:e2:ad:73:06:90:cf:
                    c9:c3:25:db:18:f8:54:1e:89:41:52:5f:6e:9e:e6:
                    4b:e4:84:98:33:54:f7:90:1b:ac:9c:d6:49:7d:72:
                    e3:e8:97:b3:21:d6:b0:8f:c1:81:52:40:7f:65:15:
                    4b:50:79:d4:19:82:d5:66:34:a8:af:4c:61:8e:7a:
                    50:7e:d8:40:23:58:c1:cc:b1:45:06:c4:e9:31:22:
                    ea:35:fe:08:43:72:0d:5b:21:df:dd:12:ba:fb:d6:
                    6a:70:28:fd:78:b7:4e:0d:aa:f3:93:63:19:5d:c1:
                    2f:62:8e:38:77:5e:e4:1c:b9:76:7b:37:28:11:dc:
                    4f:d1:3b:2d:c5:04:6b:c2:91:cc:cf:00:5b:61:11:
                    e4:50:56:1d:03:b5:51:05:6e:a4:04:96:e6:97:8e:
                    90:17
                Exponent: 65537 (0x10001)
        X509v3 extensions:
            X509v3 Subject Key Identifier: 
                3B:68:7F:4E:AE:1C:BA:65:66:47:13:A8:AB:9A:3F:6D:B4:43:28:CB
            X509v3 Authority Key Identifier: 
                keyid:3B:68:7F:4E:AE:1C:BA:65:66:47:13:A8:AB:9A:3F:6D:B4:43:28:CB

            X509v3 Basic Constraints: 
                CA:TRUE
    Signature Algorithm: sha256WithRSAEncryption
         13:b3:cc:16:14:5c:70:e2:ae:4b:1d:f3:a1:c5:ed:88:55:4f:
         7b:cb:92:08:e8:5a:92:52:07:bd:9a:76:ea:58:6d:d4:93:5d:
         c0:57:5e:43:8e:b9:b3:be:25:a8:56:38:e5:61:02:0b:50:07:
         79:e5:48:aa:45:eb:30:b0:e9:9c:96:41:8e:16:d0:05:89:8f:
         31:42:0f:42:c7:bd:a1:73:8d:5b:2b:f3:a3:37:53:fc:ef:7a:
         25:36:ad:a3:f9:93:dd:e2:45:29:5c:e3:d6:9c:6c:a3:d6:9b:
         8f:a8:e2:51:63:6a:49:0e:73:99:8d:e6:0c:ba:f4:45:0e:d9:
         ce:02:86:0a:3f:2d:13:65:1b:a3:95:2c:a7:1a:c7:9e:7d:4b:
         4a:31:b2:b4:ef:c4:4f:24:05:e1:71:25:7b:3e:92:5d:33:9a:
         2d:1e:2b:10:36:f6:94:e3:a1:d0:a4:cf:1e:4a:00:71:b3:8b:
         75:87:e0:6d:71:d5:19:52:6f:4a:f6:89:a2:49:5f:ea:6b:ed:
         e1:7b:52:b3:a9:9b:0c:5d:b3:12:38:40:7e:1a:c1:b7:fd:c3:
         34:14:b3:5d:e0:21:62:b4:90:8e:3c:67:49:c3:75:ec:9b:a1:
         29:95:7f:12:0d:07:dd:96:d8:29:da:ed:55:93:43:f2:36:f2:
         f2:7b:08:43
-----BEGIN CERTIFICATE-----
MIIDbTCCAlWgAwIBAgIJAL81h2l6jNQrMA0GCSqGSIb3DQEBCwUAME0xCzAJBgNV
BAYTAkJSMRMwEQYDVQQIDApTb21lLVN0YXRlMQ4wDAYDVQQKDAVIYXZhbjEZMBcG
A1UEAwwQd3d3LmhhdmFuLmNvbS5icjAeFw0yMDExMTYyMzAyMTJaFw0yMzExMTYy
MzAyMTJaME0xCzAJBgNVBAYTAkJSMRMwEQYDVQQIDApTb21lLVN0YXRlMQ4wDAYD
VQQKDAVIYXZhbjEZMBcGA1UEAwwQd3d3LmhhdmFuLmNvbS5icjCCASIwDQYJKoZI
hvcNAQEBBQADggEPADCCAQoCggEBAKWhVXGaofimTwONfbrdlKrdJXc2vDhinNyT
UpyaVXoPzw+2/GjSzJqwd0jWn22tmOo+OOY7aBefQEQJGgzgHrbhUIRmVG/pdUR3
XzAnaPX5428Lu0piJxDTA3djYjr78cUW4q1zBpDPycMl2xj4VB6JQVJfbp7mS+SE
mDNU95AbrJzWSX1y4+iXsyHWsI/BgVJAf2UVS1B51BmC1WY0qK9MYY56UH7YQCNY
wcyxRQbE6TEi6jX+CENyDVsh390SuvvWanAo/Xi3Tg2q85NjGV3BL2KOOHde5By5
dns3KBHcT9E7LcUEa8KRzM8AW2ER5FBWHQO1UQVupASW5peOkBcCAwEAAaNQME4w
HQYDVR0OBBYEFDtof06uHLplZkcTqKuaP220QyjLMB8GA1UdIwQYMBaAFDtof06u
HLplZkcTqKuaP220QyjLMAwGA1UdEwQFMAMBAf8wDQYJKoZIhvcNAQELBQADggEB
ABOzzBYUXHDirksd86HF7YhVT3vLkgjoWpJSB72adupYbdSTXcBXXkOOubO+JahW
OOVhAgtQB3nlSKpF6zCw6ZyWQY4W0AWJjzFCD0LHvaFzjVsr86M3U/zveiU2raP5
k93iRSlc49acbKPWm4+o4lFjakkOc5mN5gy69EUO2c4Chgo/LRNlG6OVLKcax559
S0oxsrTvxE8kBeFxJXs+kl0zmi0eKxA29pTjodCkzx5KAHGzi3WH4G1x1RlSb0r2
iaJJX+pr7eF7UrOpmwxdsxI4QH4awbf9wzQUs13gIWK0kI48Z0nDdeyboSmVfxIN
B92W2Cna7VWTQ/I28vJ7CEM=
-----END CERTIFICATE-----
