Certificate:
    Data:
        Version: 3 (0x2)
        Serial Number: 15340919630512683382 (0xd4e5e51fd0867976)
    Signature Algorithm: sha256WithRSAEncryption
        Issuer: C=BR, ST=Some-State, O=Havan, CN=www.havan.com.br
        Validity
            Not Before: Nov 16 23:03:53 2020 GMT
            Not After : Nov 16 23:03:53 2021 GMT
        Subject: C=BR, ST=PR, L=Guarapuava, O=Loja Havan, OU=Cidade dos Lagos, CN=www.cilla.havan.com.br
        Subject Public Key Info:
            Public Key Algorithm: rsaEncryption
                Public-Key: (2048 bit)
                Modulus:
                    00:c1:77:30:66:bc:40:50:6b:f6:f9:8b:9b:50:3f:
                    bd:48:27:cf:58:1f:63:b5:a2:33:80:a3:ee:e6:71:
                    88:eb:ac:d9:58:94:43:02:51:a5:72:c3:03:e3:83:
                    4d:4c:f3:f3:2c:b1:5b:59:77:d1:86:64:cf:39:da:
                    e9:f8:60:5f:c3:f7:fb:e7:aa:85:7f:cd:a6:30:59:
                    27:12:83:f9:15:25:07:b6:24:dc:6d:e2:a6:05:1a:
                    cf:73:1a:cd:20:1e:b9:39:5f:84:fd:46:c2:ca:95:
                    05:2b:3e:70:78:60:5a:ae:6f:88:0d:01:68:04:d3:
                    f8:a9:0f:86:c6:6e:84:22:3c:04:d8:ab:a6:fc:36:
                    d4:9b:4b:97:d2:6f:59:fd:3b:a1:77:7a:11:d4:ac:
                    55:11:20:4a:2b:a4:34:c2:7d:91:c7:f4:ff:e0:bc:
                    43:ec:35:c3:42:0a:0e:99:ff:66:d6:5e:ea:7a:59:
                    e4:36:13:1e:36:13:b5:d2:36:32:fc:ae:b8:dd:5d:
                    a4:9e:da:3d:a6:67:7b:f4:f9:dd:b5:19:98:ed:1a:
                    82:df:a4:c1:2b:96:f0:9d:af:9e:b8:5d:48:53:7c:
                    5b:28:53:13:e6:6b:e6:dd:a1:3a:53:8c:70:ea:d7:
                    23:60:2a:fb:8c:c5:33:c7:23:d2:db:64:75:26:97:
                    c3:99
                Exponent: 65537 (0x10001)
        X509v3 extensions:
            X509v3 Basic Constraints: 
                CA:FALSE
            Netscape Comment: 
                OpenSSL Generated Certificate
            X509v3 Subject Key Identifier: 
                1B:D3:B3:24:8C:A9:CC:02:61:12:8D:10:E8:5C:E5:A2:94:4B:9C:A5
            X509v3 Authority Key Identifier: 
                keyid:E2:8D:96:C1:A6:BC:12:17:37:EF:2F:35:AC:15:3B:5D:CC:65:71:A3

    Signature Algorithm: sha256WithRSAEncryption
         99:bb:e3:00:7c:dd:07:a2:91:a0:8c:70:7d:24:78:c3:2b:5d:
         df:b4:b6:1c:31:01:44:9c:63:2d:9d:9a:ec:1b:e2:b5:14:f2:
         67:f4:c1:2c:a0:5e:b9:c8:19:f3:0d:6c:41:48:f2:51:f0:55:
         37:13:f9:d2:79:2f:46:fd:15:93:b6:f1:95:50:bc:3e:30:3d:
         91:37:20:cb:c8:b9:37:41:6d:80:d7:3a:65:77:20:1a:a2:5e:
         e2:51:91:f2:82:29:e1:30:3a:4d:b5:b9:94:6b:56:e7:19:1e:
         cd:34:8d:30:8f:c9:04:a7:93:c9:d8:f6:e1:b6:a2:80:50:51:
         1f:3e:06:6b:1f:b5:f4:0e:8c:50:1b:73:07:51:69:51:1c:2f:
         77:f7:27:33:2b:f1:6f:62:fb:14:1c:20:98:db:9a:bf:87:f2:
         a5:d1:df:ab:d6:60:46:9f:ea:c1:d9:69:79:fc:3b:6b:6c:4c:
         04:08:b9:be:0b:7f:7f:28:ed:ac:f8:6f:69:09:04:3d:ed:a3:
         29:b9:8d:59:59:80:10:81:c5:3a:c4:80:0d:61:fe:81:4f:21:
         8c:e5:6b:40:9a:d9:c1:06:41:63:21:99:a4:9a:0a:62:6d:af:
         36:7c:85:c4:a5:a7:fa:1c:eb:43:1d:12:59:01:55:93:60:51:
         86:4d:1f:e2
-----BEGIN CERTIFICATE-----
MIIDzDCCArSgAwIBAgIJANTl5R/Qhnl2MA0GCSqGSIb3DQEBCwUAME0xCzAJBgNV
BAYTAkJSMRMwEQYDVQQIDApTb21lLVN0YXRlMQ4wDAYDVQQKDAVIYXZhbjEZMBcG
A1UEAwwQd3d3LmhhdmFuLmNvbS5icjAeFw0yMDExMTYyMzAzNTNaFw0yMTExMTYy
MzAzNTNaMIGAMQswCQYDVQQGEwJCUjELMAkGA1UECAwCUFIxEzARBgNVBAcMCkd1
YXJhcHVhdmExEzARBgNVBAoMCkxvamEgSGF2YW4xGTAXBgNVBAsMEENpZGFkZSBk
b3MgTGFnb3MxHzAdBgNVBAMMFnd3dy5jaWxsYS5oYXZhbi5jb20uYnIwggEiMA0G
CSqGSIb3DQEBAQUAA4IBDwAwggEKAoIBAQDBdzBmvEBQa/b5i5tQP71IJ89YH2O1
ojOAo+7mcYjrrNlYlEMCUaVywwPjg01M8/MssVtZd9GGZM852un4YF/D9/vnqoV/
zaYwWScSg/kVJQe2JNxt4qYFGs9zGs0gHrk5X4T9RsLKlQUrPnB4YFqub4gNAWgE
0/ipD4bGboQiPATYq6b8NtSbS5fSb1n9O6F3ehHUrFURIEorpDTCfZHH9P/gvEPs
NcNCCg6Z/2bWXup6WeQ2Ex42E7XSNjL8rrjdXaSe2j2mZ3v0+d21GZjtGoLfpMEr
lvCdr564XUhTfFsoUxPma+bdoTpTjHDq1yNgKvuMxTPHI9LbZHUml8OZAgMBAAGj
ezB5MAkGA1UdEwQCMAAwLAYJYIZIAYb4QgENBB8WHU9wZW5TU0wgR2VuZXJhdGVk
IENlcnRpZmljYXRlMB0GA1UdDgQWBBQb07MkjKnMAmESjRDoXOWilEucpTAfBgNV
HSMEGDAWgBTijZbBprwSFzfvLzWsFTtdzGVxozANBgkqhkiG9w0BAQsFAAOCAQEA
mbvjAHzdB6KRoIxwfSR4wytd37S2HDEBRJxjLZ2a7BvitRTyZ/TBLKBeucgZ8w1s
QUjyUfBVNxP50nkvRv0Vk7bxlVC8PjA9kTcgy8i5N0FtgNc6ZXcgGqJe4lGR8oIp
4TA6TbW5lGtW5xkezTSNMI/JBKeTydj24baigFBRHz4Gax+19A6MUBtzB1FpURwv
d/cnMyvxb2L7FBwgmNuav4fypdHfq9ZgRp/qwdlpefw7a2xMBAi5vgt/fyjtrPhv
aQkEPe2jKbmNWVmAEIHFOsSADWH+gU8hjOVrQJrZwQZBYyGZpJoKYm2vNnyFxKWn
+hzrQx0SWQFVk2BRhk0f4g==
-----END CERTIFICATE-----
