Certificate:
    Data:
        Version: 3 (0x2)
        Serial Number: 11112384737930418723 (0x9a371f0b0fd09a23)
    Signature Algorithm: sha256WithRSAEncryption
        Issuer: C=BR, ST=DF, O=Governo Federal, OU=CTIR, CN=www.gov.br
        Validity
            Not Before: Nov 16 22:53:50 2020 GMT
            Not After : Nov 16 22:53:50 2021 GMT
        Subject: C=BR, ST=PR, L=Curitiba, O=Governo do Estado, CN=www.pr.gov.br
        Subject Public Key Info:
            Public Key Algorithm: dsaEncryption
                pub: 
                    00:86:ea:12:fa:f7:12:b5:a7:95:ea:85:a5:1b:70:
                    0c:24:e1:b9:7c:fe:b3:b2:02:72:0a:2b:4e:bc:93:
                    5f:ed:46:24:46:8d:16:63:d4:b1:d5:2e:0f:d2:fe:
                    20:d0:07:68:99:22:f5:f1:13:a1:6c:f5:3e:67:2b:
                    50:f7:61:a1:ce:1f:33:24:1b:6f:6a:84:22:de:aa:
                    2a:23:5e:9f:5d:e7:d8:55:e9:9e:eb:a1:5d:43:db:
                    24:93:79:06:bd:f0:ac:0e:ae:62:87:72:c8:29:39:
                    76:ff:9b:54:06:a7:ee:1a:73:52:df:a0:84:f9:cc:
                    97:79:86:35:97:1b:4e:a6:9c:55:14:ef:17:82:2a:
                    d8:ab:e5:2b:80:65:2b:e5:b2:97:14:29:fa:5e:08:
                    9b:4b:fb:da:4b:37:7d:7a:20:dc:de:c8:9b:75:76:
                    fa:6b:81:83:81:55:70:f4:4b:b1:32:da:f8:41:83:
                    db:cb:44:5c:b7:c3:98:5a:ef:9b:19:92:7f:8c:f8:
                    6c:43:00:26:e8:88:d1:7e:66:59:c9:08:9d:4f:04:
                    0e:ef:b7:18:9a:d2:52:9e:43:4f:9c:80:3f:39:53:
                    d1:0e:ad:00:c1:06:94:cf:83:39:be:23:38:4a:48:
                    2b:2f:e0:cd:73:ee:c8:4c:ab:23:a5:65:02:53:d6:
                    ac:a9
                P:   
                    00:fb:9f:36:37:d6:13:26:71:1d:2a:7c:2b:80:9c:
                    03:88:20:f1:88:85:8d:09:8c:6b:85:ac:1d:af:ed:
                    e1:d1:ea:61:ff:7d:d7:b6:27:ff:01:33:8c:f5:f5:
                    7e:32:21:9e:3e:e0:22:a1:1d:56:0c:a0:21:a3:10:
                    35:51:cf:8e:78:ba:d5:21:2f:fa:97:be:70:18:cf:
                    23:2e:55:b8:06:7a:47:28:bf:f9:c4:f0:71:3f:c5:
                    a8:64:62:87:62:53:bb:ab:96:9d:96:d9:20:0a:e1:
                    87:3f:43:10:f5:60:7c:ca:6e:92:75:69:43:1a:3c:
                    6b:27:55:ed:1f:e9:0d:b4:8d:49:98:9b:04:04:7e:
                    76:3e:f4:9f:9c:fd:34:1c:b6:2e:43:c3:80:45:99:
                    55:3d:b2:03:d4:2d:bc:67:41:6a:99:46:44:1f:06:
                    ae:1a:54:11:82:e3:63:0f:a9:15:c8:0c:fc:1f:f9:
                    b6:9a:f0:f5:1b:a0:ec:90:31:25:fc:63:13:b9:c5:
                    d0:60:f1:0c:5a:62:b7:1d:0e:5b:e4:78:39:19:4e:
                    9e:9b:72:17:8c:40:bd:a2:4d:e1:96:03:ff:f3:b2:
                    c6:ec:d1:a8:40:d4:4a:0f:11:83:fb:85:01:ef:71:
                    32:77:0a:d8:4f:02:62:09:09:ba:1b:ea:45:9a:7e:
                    7b:c7
                Q:   
                    00:b8:f4:4d:be:95:73:7e:1c:e3:d9:c5:1c:b2:d5:
                    5d:9b:53:81:5f:f8:1d:9f:cf:a2:57:5c:f5:9d:27:
                    ca:7e:6b
                G:   
                    2c:2a:47:b5:a2:2d:80:ba:78:ad:d2:d4:89:e9:0f:
                    a2:7f:52:90:ed:59:ba:19:60:82:ba:c0:63:28:78:
                    a4:1c:27:f1:06:67:58:3d:8c:28:7e:79:29:15:5b:
                    66:06:f7:5b:10:cd:bf:7c:a2:0a:61:12:85:3c:fd:
                    9b:8a:19:d8:09:eb:2b:fa:e1:fb:cc:15:3f:ac:6f:
                    d0:83:ad:ef:4b:c7:05:e2:26:2d:87:7e:e4:85:62:
                    52:34:e9:45:0e:90:95:8f:11:1e:fa:71:78:b8:8c:
                    9a:cf:e4:ce:12:0a:ea:f4:b7:a8:15:5d:60:ee:3b:
                    51:c5:58:d1:a3:e8:78:20:cd:93:a8:60:10:4e:ec:
                    67:24:d6:f0:ec:f3:10:4b:7f:8b:86:9c:e1:4e:94:
                    c0:1a:fd:c7:5c:7b:2e:2b:9c:09:c9:f6:17:73:36:
                    63:38:ba:52:c1:6f:79:6d:e2:ea:36:cd:21:c5:6e:
                    81:80:63:d4:e2:63:29:7c:f0:f0:31:90:4d:ae:98:
                    cb:25:34:75:d7:b0:9b:3b:b5:4a:64:15:ff:f5:a6:
                    95:b0:1f:bb:83:c1:ea:2d:40:5e:7b:90:b6:7d:3a:
                    1c:4f:5a:58:ab:53:5f:25:01:c2:cd:9a:b0:b2:82:
                    73:96:00:93:8a:fc:fd:c4:93:d6:27:cb:a8:eb:cd:
                    35
        X509v3 extensions:
            X509v3 Basic Constraints: 
                CA:FALSE
            Netscape Comment: 
                OpenSSL Generated Certificate
            X509v3 Subject Key Identifier: 
                7B:47:8D:6E:17:22:CD:9C:37:72:E5:A0:D0:27:6A:49:BA:EF:57:DE
            X509v3 Authority Key Identifier: 
                keyid:D4:97:AA:B6:F2:35:61:EC:38:74:4E:BA:C2:84:5D:E6:C6:85:10:B0

    Signature Algorithm: sha256WithRSAEncryption
         70:7b:62:21:50:c3:72:cb:83:97:50:82:af:80:96:ef:77:75:
         84:34:2a:34:2a:20:0b:53:a9:bf:d2:de:42:2e:a4:6e:89:ed:
         a0:ca:1c:8d:41:9d:8f:b5:93:19:5d:4d:9b:c6:9a:ba:f9:2c:
         75:64:11:c8:3b:e6:5f:98:c0:6f:82:4c:15:06:df:88:d8:2f:
         37:8c:4c:4b:93:32:7b:8c:61:42:3c:a0:73:86:5c:72:94:28:
         a5:b9:d4:cf:64:13:b2:7f:e7:03:1f:01:22:53:00:77:1c:8e:
         b4:96:e4:6d:ce:e6:a2:c9:bd:64:95:b7:16:0d:f7:a6:5a:b3:
         8f:3a:ab:8b:91:7d:8a:98:89:a3:d9:e8:7f:54:c8:e4:cf:73:
         93:86:8f:0b:62:9a:6f:9d:37:11:4c:f6:b6:30:ed:01:3d:e1:
         96:cf:71:d4:6d:dc:fa:14:63:f4:eb:a8:93:05:e2:f8:f8:6a:
         90:5b:45:be:6e:a3:54:b2:fc:60:08:21:f5:fd:4e:be:54:13:
         11:4d:68:07:01:3c:0f:27:b7:35:b4:29:c2:81:8b:56:f8:7a:
         fa:e8:2c:5d:61:60:37:9a:79:19:5f:05:4e:5c:b4:3f:23:36:
         c0:b7:f4:b3:ae:c4:35:40:0f:80:f7:7c:a0:4a:d3:0f:46:5e:
         6e:34:6f:8d
-----BEGIN CERTIFICATE-----
MIIF3DCCBMSgAwIBAgIJAJo3HwsP0JojMA0GCSqGSIb3DQEBCwUAMFgxCzAJBgNV
BAYTAkJSMQswCQYDVQQIDAJERjEYMBYGA1UECgwPR292ZXJubyBGZWRlcmFsMQ0w
CwYDVQQLDARDVElSMRMwEQYDVQQDDAp3d3cuZ292LmJyMB4XDTIwMTExNjIyNTM1
MFoXDTIxMTExNjIyNTM1MFowYTELMAkGA1UEBhMCQlIxCzAJBgNVBAgMAlBSMREw
DwYDVQQHDAhDdXJpdGliYTEaMBgGA1UECgwRR292ZXJubyBkbyBFc3RhZG8xFjAU
BgNVBAMMDXd3dy5wci5nb3YuYnIwggNHMIICOQYHKoZIzjgEATCCAiwCggEBAPuf
NjfWEyZxHSp8K4CcA4gg8YiFjQmMa4WsHa/t4dHqYf9917Yn/wEzjPX1fjIhnj7g
IqEdVgygIaMQNVHPjni61SEv+pe+cBjPIy5VuAZ6Ryi/+cTwcT/FqGRih2JTu6uW
nZbZIArhhz9DEPVgfMpuknVpQxo8aydV7R/pDbSNSZibBAR+dj70n5z9NBy2LkPD
gEWZVT2yA9QtvGdBaplGRB8GrhpUEYLjYw+pFcgM/B/5tprw9Rug7JAxJfxjE7nF
0GDxDFpitx0OW+R4ORlOnptyF4xAvaJN4ZYD//OyxuzRqEDUSg8Rg/uFAe9xMncK
2E8CYgkJuhvqRZp+e8cCIQC49E2+lXN+HOPZxRyy1V2bU4Ff+B2fz6JXXPWdJ8p+
awKCAQAsKke1oi2Aunit0tSJ6Q+if1KQ7Vm6GWCCusBjKHikHCfxBmdYPYwofnkp
FVtmBvdbEM2/fKIKYRKFPP2bihnYCesr+uH7zBU/rG/Qg63vS8cF4iYth37khWJS
NOlFDpCVjxEe+nF4uIyaz+TOEgrq9LeoFV1g7jtRxVjRo+h4IM2TqGAQTuxnJNbw
7PMQS3+LhpzhTpTAGv3HXHsuK5wJyfYXczZjOLpSwW95beLqNs0hxW6BgGPU4mMp
fPDwMZBNrpjLJTR117CbO7VKZBX/9aaVsB+7g8HqLUBee5C2fTocT1pYq1NfJQHC
zZqwsoJzlgCTivz9xJPWJ8uo6801A4IBBgACggEBAIbqEvr3ErWnleqFpRtwDCTh
uXz+s7ICcgorTryTX+1GJEaNFmPUsdUuD9L+INAHaJki9fEToWz1PmcrUPdhoc4f
MyQbb2qEIt6qKiNen13n2FXpnuuhXUPbJJN5Br3wrA6uYodyyCk5dv+bVAan7hpz
Ut+ghPnMl3mGNZcbTqacVRTvF4Iq2KvlK4BlK+WylxQp+l4Im0v72ks3fXog3N7I
m3V2+muBg4FVcPRLsTLa+EGD28tEXLfDmFrvmxmSf4z4bEMAJuiI0X5mWckInU8E
Du+3GJrSUp5DT5yAPzlT0Q6tAMEGlM+DOb4jOEpIKy/gzXPuyEyrI6VlAlPWrKmj
ezB5MAkGA1UdEwQCMAAwLAYJYIZIAYb4QgENBB8WHU9wZW5TU0wgR2VuZXJhdGVk
IENlcnRpZmljYXRlMB0GA1UdDgQWBBR7R41uFyLNnDdy5aDQJ2pJuu9X3jAfBgNV
HSMEGDAWgBTUl6q28jVh7Dh0TrrChF3mxoUQsDANBgkqhkiG9w0BAQsFAAOCAQEA
cHtiIVDDcsuDl1CCr4CW73d1hDQqNCogC1Opv9LeQi6kbontoMocjUGdj7WTGV1N
m8aauvksdWQRyDvmX5jAb4JMFQbfiNgvN4xMS5Mye4xhQjygc4ZccpQopbnUz2QT
sn/nAx8BIlMAdxyOtJbkbc7mosm9ZJW3Fg33plqzjzqri5F9ipiJo9nof1TI5M9z
k4aPC2Kab503EUz2tjDtAT3hls9x1G3c+hRj9OuokwXi+PhqkFtFvm6jVLL8YAgh
9f1OvlQTEU1oBwE8Dye3NbQpwoGLVvh6+ugsXWFgN5p5GV8FTly0PyM2wLf0s67E
NUAPgPd8oErTD0ZebjRvjQ==
-----END CERTIFICATE-----
