Certificate:
    Data:
        Version: 3 (0x2)
        Serial Number: 13014975285238126817 (0xb49e7b10cd1b58e1)
    Signature Algorithm: sha256WithRSAEncryption
        Issuer: C=BR, ST=DF, O=Governo Federal, OU=CTIR, CN=www.gov.br
        Validity
            Not Before: Nov 16 22:54:31 2020 GMT
            Not After : Nov 16 22:54:31 2021 GMT
        Subject: C=BR, ST=RJ, L=Rio de Janeiro, O=Governo do Estado, CN=www.rj.gov.br
        Subject Public Key Info:
            Public Key Algorithm: dsaEncryption
                pub: 
                    11:2a:b6:e3:b8:19:93:b8:68:1f:b7:5d:cf:ba:5c:
                    1e:9f:54:5a:e3:c2:1a:7b:be:b8:a4:e6:64:15:24:
                    d9:59:b0:53:e5:3b:0d:9c:d6:ed:2f:9a:e5:e6:2a:
                    39:77:b8:5e:bb:c8:d5:38:a9:ab:54:1b:d8:86:f8:
                    0d:76:99:cb:ae:66:f7:bb:2f:91:01:7a:15:0e:7f:
                    0c:98:5e:7e:68:de:c7:6a:23:00:11:c3:da:8f:ff:
                    f1:c3:66:fa:97:03:31:32:b4:30:6e:4d:25:8a:07:
                    5e:63:bd:dd:ee:b4:83:17:84:93:ef:4e:96:9e:f8:
                    76:0c:6f:55:68:00:cb:30:fb:41:78:73:86:d8:d5:
                    15:a4:5c:dc:df:08:5f:d1:c9:22:8f:27:60:01:3a:
                    5b:e0:a0:01:8e:a5:6a:7e:ca:60:70:63:8c:63:ec:
                    36:33:95:7c:43:83:af:68:f5:18:55:d8:89:04:b0:
                    1f:96:04:32:c5:d0:c9:51:e6:23:61:15:30:c3:c6:
                    c4:70:92:7a:2f:84:83:8b:e4:99:19:84:bf:01:68:
                    d2:88:2c:ee:fc:6f:13:1b:e8:d9:6b:b3:fb:d1:a3:
                    24:57:d1:79:6c:ac:6b:cb:b0:10:64:16:f0:34:94:
                    ec:36:d6:ab:1b:cb:b9:ab:59:d4:8b:17:da:15:0f:
                    af
                P:   
                    00:a3:5a:d9:7f:13:fe:13:f8:c7:1f:3e:77:ea:2b:
                    b9:ef:a7:0a:65:37:10:a8:53:72:7d:3e:a1:c8:75:
                    a7:fb:5f:3d:c9:d4:0b:3e:33:29:ea:42:8b:7a:98:
                    b1:b9:a3:c9:08:6b:f5:55:1b:d0:b9:0f:11:b0:a9:
                    e5:37:82:20:d9:94:ad:5d:64:ff:cf:ea:6d:ec:2f:
                    26:37:ef:33:63:d7:f7:66:26:a1:ad:80:95:0f:a3:
                    02:9f:9e:02:ef:80:3e:a8:c7:2e:1b:8e:c4:c3:ff:
                    be:85:2b:a9:b0:50:d4:3d:e1:18:66:cb:fb:9c:15:
                    c8:5e:69:46:32:a3:64:f3:10:53:8d:58:d8:a3:88:
                    6e:a1:c0:08:b4:dc:38:0d:97:b8:f2:67:d4:e6:4d:
                    bc:b4:98:98:dd:ab:58:32:fa:0e:35:03:97:15:53:
                    c8:5e:3f:ef:54:8b:41:cc:eb:ad:38:31:6e:a7:c0:
                    c6:54:c0:f3:48:14:2c:49:62:98:69:fc:38:3a:08:
                    a8:8b:bb:19:e4:d9:63:14:3f:52:c8:76:5f:e4:6d:
                    d4:dd:e8:23:33:f1:92:a1:3a:37:4a:8b:e5:37:bd:
                    57:61:b8:64:11:3f:bd:85:cf:68:87:eb:b6:21:b9:
                    46:b0:e1:5e:51:89:e8:94:92:0b:60:fa:17:93:55:
                    20:97
                Q:   
                    00:d6:4a:e6:da:de:8f:2b:ab:69:5e:04:64:23:0b:
                    68:ac:38:9e:ea:f4:ea:6d:26:0a:c5:27:f1:f2:40:
                    40:cf:c7
                G:   
                    71:77:0e:bb:97:a2:bc:b0:7a:b4:4c:d3:04:86:ec:
                    0a:f5:75:a7:aa:4f:3f:44:f2:1a:e7:d3:93:e7:77:
                    22:25:56:94:6c:01:a1:94:5d:a7:5e:01:ac:5b:71:
                    99:27:ca:fb:06:f6:ab:ba:46:b0:d4:c2:ad:8f:f4:
                    5f:df:f4:18:eb:a4:60:41:09:7f:aa:5a:f1:f8:5e:
                    ea:91:cb:e4:b2:97:ba:69:35:76:9f:3d:21:bb:58:
                    8b:3f:1e:4a:1b:3e:2c:48:0c:62:ee:f6:f7:1a:e3:
                    9c:3b:5c:67:ce:b4:7a:c0:bd:4f:cf:81:4c:96:87:
                    ab:79:85:ad:5a:99:9a:9d:48:f6:09:c9:2f:95:59:
                    9c:78:5f:40:03:2c:70:9a:6d:d3:7f:17:15:d0:9c:
                    3a:93:34:7b:27:be:64:57:c0:8a:95:7b:a8:eb:af:
                    34:d8:04:74:0d:b2:06:a3:9c:ff:8a:69:59:66:a8:
                    26:bb:a5:fb:1b:13:b8:65:a1:1a:5e:be:8e:4a:62:
                    83:e8:9c:69:4d:3f:6f:d4:d2:ec:61:0d:72:25:7d:
                    52:9b:ae:22:77:0c:67:d1:27:a5:49:dd:a2:ac:b7:
                    ca:10:d9:44:ad:f0:3a:3c:e7:b7:92:55:ba:94:da:
                    05:9e:73:e9:97:1a:c6:fa:32:a7:49:d8:90:39:6b:
                    08
        X509v3 extensions:
            X509v3 Basic Constraints: 
                CA:FALSE
            Netscape Comment: 
                OpenSSL Generated Certificate
            X509v3 Subject Key Identifier: 
                F1:D0:25:D5:03:E6:E2:85:53:5C:7A:04:58:38:C9:5F:C3:51:05:D7
            X509v3 Authority Key Identifier: 
                keyid:53:0A:A4:C7:D4:F3:C4:CF:2B:10:77:0D:8A:3A:E9:92:9C:D1:00:84

    Signature Algorithm: sha256WithRSAEncryption
         2d:10:3f:bf:82:de:05:35:20:22:90:59:79:42:32:f6:76:e0:
         0f:78:31:5e:c2:08:9f:08:ad:26:82:70:9b:4c:54:9a:15:79:
         d2:fa:f8:ae:7c:0e:3e:e1:4a:0e:d7:5a:63:cb:09:67:2a:ed:
         cd:4f:ca:19:c2:a8:5c:21:2e:05:92:6b:4f:bb:55:fe:50:cb:
         e6:b1:ad:9b:82:55:5f:2c:83:0d:71:6e:1e:81:30:9f:1d:f7:
         11:bf:cd:6f:cd:f6:55:d2:cb:96:c3:74:da:47:cb:22:5d:2a:
         ba:be:09:93:42:36:eb:4e:ff:72:af:b8:d9:18:02:b8:83:84:
         71:9d:da:92:9a:3b:00:4c:05:5c:6a:f9:95:30:d6:e4:88:7d:
         85:38:40:a5:21:41:0d:31:d5:30:6e:77:d2:10:fd:71:16:bb:
         57:13:32:5c:03:26:56:75:fc:02:ba:67:ba:b1:47:8c:59:5a:
         83:a1:eb:1e:47:6e:4e:fc:78:2a:0d:51:d5:a6:70:af:c0:ca:
         54:8f:42:df:af:ee:38:36:a1:e4:76:66:cc:2f:7b:37:84:cb:
         07:2b:80:b3:2a:9d:3e:ae:68:ae:0b:3d:c5:c0:c4:52:ae:f5:
         73:c8:c0:f1:e8:77:24:95:cf:df:f3:f5:b9:4d:47:bd:df:11:
         43:61:74:b2
-----BEGIN CERTIFICATE-----
MIIF4TCCBMmgAwIBAgIJALSeexDNG1jhMA0GCSqGSIb3DQEBCwUAMFgxCzAJBgNV
BAYTAkJSMQswCQYDVQQIDAJERjEYMBYGA1UECgwPR292ZXJubyBGZWRlcmFsMQ0w
CwYDVQQLDARDVElSMRMwEQYDVQQDDAp3d3cuZ292LmJyMB4XDTIwMTExNjIyNTQz
MVoXDTIxMTExNjIyNTQzMVowZzELMAkGA1UEBhMCQlIxCzAJBgNVBAgMAlJKMRcw
FQYDVQQHDA5SaW8gZGUgSmFuZWlybzEaMBgGA1UECgwRR292ZXJubyBkbyBFc3Rh
ZG8xFjAUBgNVBAMMDXd3dy5yai5nb3YuYnIwggNGMIICOQYHKoZIzjgEATCCAiwC
ggEBAKNa2X8T/hP4xx8+d+orue+nCmU3EKhTcn0+och1p/tfPcnUCz4zKepCi3qY
sbmjyQhr9VUb0LkPEbCp5TeCINmUrV1k/8/qbewvJjfvM2PX92Ymoa2AlQ+jAp+e
Au+APqjHLhuOxMP/voUrqbBQ1D3hGGbL+5wVyF5pRjKjZPMQU41Y2KOIbqHACLTc
OA2XuPJn1OZNvLSYmN2rWDL6DjUDlxVTyF4/71SLQczrrTgxbqfAxlTA80gULEli
mGn8ODoIqIu7GeTZYxQ/Ush2X+Rt1N3oIzPxkqE6N0qL5Te9V2G4ZBE/vYXPaIfr
tiG5RrDhXlGJ6JSSC2D6F5NVIJcCIQDWSuba3o8rq2leBGQjC2isOJ7q9OptJgrF
J/HyQEDPxwKCAQBxdw67l6K8sHq0TNMEhuwK9XWnqk8/RPIa59OT53ciJVaUbAGh
lF2nXgGsW3GZJ8r7Bvarukaw1MKtj/Rf3/QY66RgQQl/qlrx+F7qkcvkspe6aTV2
nz0hu1iLPx5KGz4sSAxi7vb3GuOcO1xnzrR6wL1Pz4FMloereYWtWpmanUj2Cckv
lVmceF9AAyxwmm3TfxcV0Jw6kzR7J75kV8CKlXuo66802AR0DbIGo5z/imlZZqgm
u6X7GxO4ZaEaXr6OSmKD6JxpTT9v1NLsYQ1yJX1Sm64idwxn0SelSd2irLfKENlE
rfA6POe3klW6lNoFnnPplxrG+jKnSdiQOWsIA4IBBQACggEAESq247gZk7hoH7dd
z7pcHp9UWuPCGnu+uKTmZBUk2VmwU+U7DZzW7S+a5eYqOXe4XrvI1Tipq1Qb2Ib4
DXaZy65m97svkQF6FQ5/DJhefmjex2ojABHD2o//8cNm+pcDMTK0MG5NJYoHXmO9
3e60gxeEk+9Olp74dgxvVWgAyzD7QXhzhtjVFaRc3N8IX9HJIo8nYAE6W+CgAY6l
an7KYHBjjGPsNjOVfEODr2j1GFXYiQSwH5YEMsXQyVHmI2EVMMPGxHCSei+Eg4vk
mRmEvwFo0ogs7vxvExvo2Wuz+9GjJFfReWysa8uwEGQW8DSU7DbWqxvLuatZ1IsX
2hUPr6N7MHkwCQYDVR0TBAIwADAsBglghkgBhvhCAQ0EHxYdT3BlblNTTCBHZW5l
cmF0ZWQgQ2VydGlmaWNhdGUwHQYDVR0OBBYEFPHQJdUD5uKFU1x6BFg4yV/DUQXX
MB8GA1UdIwQYMBaAFFMKpMfU88TPKxB3DYo66ZKc0QCEMA0GCSqGSIb3DQEBCwUA
A4IBAQAtED+/gt4FNSAikFl5QjL2duAPeDFewgifCK0mgnCbTFSaFXnS+viufA4+
4UoO11pjywlnKu3NT8oZwqhcIS4FkmtPu1X+UMvmsa2bglVfLIMNcW4egTCfHfcR
v81vzfZV0suWw3TaR8siXSq6vgmTQjbrTv9yr7jZGAK4g4RxndqSmjsATAVcavmV
MNbkiH2FOEClIUENMdUwbnfSEP1xFrtXEzJcAyZWdfwCume6sUeMWVqDoeseR25O
/HgqDVHVpnCvwMpUj0Lfr+44NqHkdmbML3s3hMsHK4CzKp0+rmiuCz3FwMRSrvVz
yMDx6Hcklc/f8/W5TUe93xFDYXSy
-----END CERTIFICATE-----
