Certificate:
    Data:
        Version: 3 (0x2)
        Serial Number: 11112384737930418724 (0x9a371f0b0fd09a24)
    Signature Algorithm: sha256WithRSAEncryption
        Issuer: C=BR, ST=DF, O=Governo Federal, OU=CTIR, CN=www.gov.br
        Validity
            Not Before: Nov 16 22:55:11 2020 GMT
            Not After : Nov 16 22:55:11 2021 GMT
        Subject: C=BR, ST=RS, L=Porto Alegre, O=Governo do Estado, CN=www.rs.gov.br
        Subject Public Key Info:
            Public Key Algorithm: dsaEncryption
                pub: 
                    37:20:ee:8b:89:24:af:2b:a8:e8:b8:d7:3c:44:5d:
                    41:8a:b2:36:c5:4f:e3:04:5b:36:80:cc:93:4d:94:
                    28:71:3e:bd:cb:44:97:71:64:61:96:3b:8c:b8:43:
                    da:53:23:b9:6a:c3:9a:d1:08:8e:38:d1:f9:12:10:
                    a3:4d:5f:3e:48:43:8e:d4:e6:92:4b:c5:45:0d:bf:
                    d4:d6:45:37:55:78:3d:fc:5f:54:96:20:ae:1b:ee:
                    02:e8:55:41:81:67:49:47:e7:b4:fa:5b:51:26:57:
                    0a:00:6c:59:d2:46:f5:ec:51:0b:e6:5c:8a:1f:85:
                    b4:03:ee:6a:1d:40:06:36:8c:16:1b:a3:db:83:52:
                    9a:01:0e:2a:c3:4b:8f:c0:10:bd:23:1c:76:4f:02:
                    2d:a0:7e:da:cf:19:b5:3b:16:b8:2e:f0:f5:7d:47:
                    db:8d:03:52:30:18:8c:42:e1:19:43:70:60:ce:b6:
                    1b:5d:93:4d:3e:db:25:e0:ae:22:9a:00:08:67:c2:
                    23:b7:00:ba:91:92:39:4e:dd:d6:de:0c:72:ce:d2:
                    bf:9a:a0:1c:7a:55:b8:3c:54:ad:b6:1b:d7:1b:30:
                    49:d0:9e:ab:f8:f4:9a:65:a6:11:ca:cc:07:34:e6:
                    e6:1f:7f:a9:cf:8a:70:aa:c8:81:54:7c:a4:af:08:
                    5f
                P:   
                    00:c5:bc:9c:07:14:25:a4:82:17:18:00:db:17:c5:
                    86:14:6e:6c:23:79:34:a9:f8:9d:1d:25:90:db:2f:
                    b8:49:a0:92:7c:68:4d:80:77:f4:71:81:3a:53:b5:
                    87:36:9b:7b:54:79:48:67:63:a1:c4:3f:b8:91:3d:
                    d9:57:f0:66:5e:9a:69:94:54:1c:15:83:5f:b8:05:
                    27:4a:db:91:16:76:09:d4:61:26:0d:c2:94:c0:01:
                    70:ad:07:47:3f:3d:1f:25:17:e4:48:83:49:34:1c:
                    9d:63:00:99:ab:50:9e:61:eb:a4:2b:b6:20:61:66:
                    2d:2d:e3:89:ec:c2:eb:31:89:39:04:17:cb:57:fa:
                    e0:17:e7:2d:f1:12:be:09:de:2c:0e:45:8f:0a:ea:
                    63:67:db:51:70:ad:0b:f9:f6:75:17:0c:f0:f6:11:
                    c6:99:62:52:3d:99:d1:ae:d9:c8:76:99:e1:ed:1f:
                    71:00:2d:b9:c9:10:8f:de:39:ca:05:61:c9:a9:8c:
                    c6:bb:6b:ac:a5:3f:54:ac:3c:2e:53:46:fc:03:62:
                    57:7b:cb:8f:44:63:b8:c1:30:e8:ec:c2:f4:0c:20:
                    8c:32:4e:b0:ed:98:f2:2b:1c:53:38:9e:50:12:a1:
                    d3:77:2f:7e:3e:75:2d:34:7c:2a:09:d1:42:2a:20:
                    04:ad
                Q:   
                    00:92:fa:7b:8a:fd:bc:cf:b4:01:5c:52:18:54:6a:
                    bd:d1:57:99:34:90:f7:6b:cc:36:69:8c:76:4f:61:
                    ed:e5:47
                G:   
                    72:42:e4:8f:a2:d6:05:c7:d5:13:5c:e1:e4:bd:d8:
                    da:db:08:bb:21:db:07:fa:85:d1:66:51:f1:9f:3f:
                    30:02:89:46:0d:4b:09:20:16:83:57:0a:c0:41:6c:
                    4a:d6:8b:02:d3:c0:ec:5a:bc:18:38:a4:9e:40:aa:
                    bb:10:f0:89:f6:c9:e3:c5:40:be:a1:b8:5d:fc:19:
                    92:da:3e:b4:23:b0:a2:b7:ad:f7:21:b5:36:69:8b:
                    0d:b7:84:8c:ff:7a:82:12:83:d8:f4:a6:ff:8b:dd:
                    35:eb:44:9b:5b:40:02:e8:1e:07:fb:8c:4c:08:58:
                    10:bc:6f:de:98:dc:de:cb:da:9f:8b:6c:89:89:5f:
                    64:61:ee:2b:e3:e9:d3:16:04:8f:30:1b:06:d3:ee:
                    ff:0b:34:91:e2:d5:31:84:d5:b9:04:5d:fe:5a:83:
                    60:3a:05:fc:5c:7b:a4:be:1d:c6:0f:e1:ec:c3:a9:
                    c9:18:06:6f:3c:33:d4:24:84:9f:dd:bf:38:ce:fd:
                    f8:c6:fb:2c:1c:c1:f6:63:4b:df:f6:01:79:2d:37:
                    b9:ad:b6:de:d5:31:20:20:4e:26:a2:1a:15:17:58:
                    a8:a4:bd:ea:d5:e8:29:88:c8:9d:ad:b3:07:c8:f7:
                    bf:37:34:81:44:72:f5:cf:ed:4f:e5:ec:ef:76:3c:
                    4f
        X509v3 extensions:
            X509v3 Basic Constraints: 
                CA:FALSE
            Netscape Comment: 
                OpenSSL Generated Certificate
            X509v3 Subject Key Identifier: 
                48:78:B7:AE:45:A7:C0:2B:24:AD:58:07:0B:09:AE:1E:A0:9D:B3:E6
            X509v3 Authority Key Identifier: 
                keyid:D4:97:AA:B6:F2:35:61:EC:38:74:4E:BA:C2:84:5D:E6:C6:85:10:B0

    Signature Algorithm: sha256WithRSAEncryption
         44:fa:d7:4f:75:54:34:b9:6e:f2:25:73:42:fa:4d:6c:06:2a:
         8e:63:6c:cb:9d:6b:69:74:43:41:4d:95:c4:85:3d:c1:0f:41:
         cd:fd:72:0e:2a:dd:59:48:8a:b0:58:31:99:a9:a3:29:cb:20:
         99:bd:cc:63:2d:1e:4b:40:2e:51:2c:b6:56:5f:8d:dd:5e:c3:
         a2:df:9a:3e:7c:c9:e5:3d:60:3e:53:b9:d6:1a:ba:0a:1b:d3:
         f0:91:98:d8:4d:39:73:22:ad:34:d0:0d:45:21:c6:b2:6c:f9:
         e7:f0:f7:b2:69:b7:51:01:e1:33:25:d6:04:06:e9:51:8e:08:
         c1:29:e8:12:70:4e:71:f0:56:ab:94:23:7a:b7:0c:56:26:5e:
         bc:6b:f1:be:fd:8e:5b:0b:d8:17:03:6a:a0:9d:f5:1c:e9:9e:
         40:52:b5:9b:cd:27:36:c3:86:2f:ce:af:ff:48:08:53:4d:e6:
         f7:55:ae:d1:ba:fc:bd:06:a0:0c:49:ab:ca:ae:98:5e:47:3a:
         8e:75:3d:1c:56:f2:f5:e6:cc:97:58:8e:44:1a:b3:a4:91:bf:
         eb:d6:a0:e9:98:52:57:57:da:46:27:ae:a9:d6:de:a3:be:16:
         e9:7e:38:08:f4:e3:c3:2e:a5:a1:80:90:0c:a2:ef:0a:d2:4a:
         61:e0:8a:c8
-----BEGIN CERTIFICATE-----
MIIF3zCCBMegAwIBAgIJAJo3HwsP0JokMA0GCSqGSIb3DQEBCwUAMFgxCzAJBgNV
BAYTAkJSMQswCQYDVQQIDAJERjEYMBYGA1UECgwPR292ZXJubyBGZWRlcmFsMQ0w
CwYDVQQLDARDVElSMRMwEQYDVQQDDAp3d3cuZ292LmJyMB4XDTIwMTExNjIyNTUx
MVoXDTIxMTExNjIyNTUxMVowZTELMAkGA1UEBhMCQlIxCzAJBgNVBAgMAlJTMRUw
EwYDVQQHDAxQb3J0byBBbGVncmUxGjAYBgNVBAoMEUdvdmVybm8gZG8gRXN0YWRv
MRYwFAYDVQQDDA13d3cucnMuZ292LmJyMIIDRjCCAjkGByqGSM44BAEwggIsAoIB
AQDFvJwHFCWkghcYANsXxYYUbmwjeTSp+J0dJZDbL7hJoJJ8aE2Ad/RxgTpTtYc2
m3tUeUhnY6HEP7iRPdlX8GZemmmUVBwVg1+4BSdK25EWdgnUYSYNwpTAAXCtB0c/
PR8lF+RIg0k0HJ1jAJmrUJ5h66QrtiBhZi0t44nswusxiTkEF8tX+uAX5y3xEr4J
3iwORY8K6mNn21FwrQv59nUXDPD2EcaZYlI9mdGu2ch2meHtH3EALbnJEI/eOcoF
YcmpjMa7a6ylP1SsPC5TRvwDYld7y49EY7jBMOjswvQMIIwyTrDtmPIrHFM4nlAS
odN3L34+dS00fCoJ0UIqIAStAiEAkvp7iv28z7QBXFIYVGq90VeZNJD3a8w2aYx2
T2Ht5UcCggEAckLkj6LWBcfVE1zh5L3Y2tsIuyHbB/qF0WZR8Z8/MAKJRg1LCSAW
g1cKwEFsStaLAtPA7Fq8GDiknkCquxDwifbJ48VAvqG4XfwZkto+tCOworet9yG1
NmmLDbeEjP96ghKD2PSm/4vdNetEm1tAAugeB/uMTAhYELxv3pjc3svan4tsiYlf
ZGHuK+Pp0xYEjzAbBtPu/ws0keLVMYTVuQRd/lqDYDoF/Fx7pL4dxg/h7MOpyRgG
bzwz1CSEn92/OM79+Mb7LBzB9mNL3/YBeS03ua223tUxICBOJqIaFRdYqKS96tXo
KYjIna2zB8j3vzc0gURy9c/tT+Xs73Y8TwOCAQUAAoIBADcg7ouJJK8rqOi41zxE
XUGKsjbFT+MEWzaAzJNNlChxPr3LRJdxZGGWO4y4Q9pTI7lqw5rRCI440fkSEKNN
Xz5IQ47U5pJLxUUNv9TWRTdVeD38X1SWIK4b7gLoVUGBZ0lH57T6W1EmVwoAbFnS
RvXsUQvmXIofhbQD7modQAY2jBYbo9uDUpoBDirDS4/AEL0jHHZPAi2gftrPGbU7
Frgu8PV9R9uNA1IwGIxC4RlDcGDOthtdk00+2yXgriKaAAhnwiO3ALqRkjlO3dbe
DHLO0r+aoBx6Vbg8VK22G9cbMEnQnqv49JplphHKzAc05uYff6nPinCqyIFUfKSv
CF+jezB5MAkGA1UdEwQCMAAwLAYJYIZIAYb4QgENBB8WHU9wZW5TU0wgR2VuZXJh
dGVkIENlcnRpZmljYXRlMB0GA1UdDgQWBBRIeLeuRafAKyStWAcLCa4eoJ2z5jAf
BgNVHSMEGDAWgBTUl6q28jVh7Dh0TrrChF3mxoUQsDANBgkqhkiG9w0BAQsFAAOC
AQEARPrXT3VUNLlu8iVzQvpNbAYqjmNsy51raXRDQU2VxIU9wQ9Bzf1yDirdWUiK
sFgxmamjKcsgmb3MYy0eS0AuUSy2Vl+N3V7Dot+aPnzJ5T1gPlO51hq6ChvT8JGY
2E05cyKtNNANRSHGsmz55/D3smm3UQHhMyXWBAbpUY4IwSnoEnBOcfBWq5QjercM
ViZevGvxvv2OWwvYFwNqoJ31HOmeQFK1m80nNsOGL86v/0gIU03m91Wu0br8vQag
DEmryq6YXkc6jnU9HFby9ebMl1iORBqzpJG/69ag6ZhSV1faRieuqdbeo74W6X44
CPTjwy6loYCQDKLvCtJKYeCKyA==
-----END CERTIFICATE-----
