Certificate:
    Data:
        Version: 3 (0x2)
        Serial Number: 11112384737930418725 (0x9a371f0b0fd09a25)
    Signature Algorithm: sha256WithRSAEncryption
        Issuer: C=BR, ST=DF, O=Governo Federal, OU=CTIR, CN=www.gov.br
        Validity
            Not Before: Nov 16 22:55:44 2020 GMT
            Not After : Nov 16 22:55:44 2021 GMT
        Subject: C=BR, ST=SC, L=Florianopolis, O=Governo do Estado, CN=www.sc.gov.br
        Subject Public Key Info:
            Public Key Algorithm: dsaEncryption
                pub: 
                    35:6c:36:cc:57:4c:89:00:fd:7a:75:d2:14:5b:b3:
                    b8:13:4c:15:bf:f0:ed:04:ac:8d:68:b0:90:d6:d6:
                    5a:59:ad:fc:15:aa:69:44:e2:73:9a:b9:cc:41:a9:
                    a8:70:ed:ba:2a:6e:28:d1:7f:74:c9:f2:6a:ac:8e:
                    19:44:70:2e:b3:57:d2:ea:6a:22:a8:ea:4d:e7:33:
                    38:ec:98:50:b9:63:56:46:5a:d0:36:df:cf:50:9a:
                    04:b8:60:2a:56:07:64:27:5a:13:e0:4d:5e:f6:f0:
                    6c:7a:de:b5:54:99:13:2c:8a:2b:d0:5d:6e:b7:40:
                    74:95:80:ca:e3:72:ae:18:87:6e:fc:52:b2:18:34:
                    26:11:bd:cd:20:04:fa:cb:c9:ed:8b:19:f1:c2:24:
                    7f:96:04:b5:96:33:d5:f2:21:3b:21:f4:f6:52:93:
                    16:49:cc:7a:6a:45:d8:bc:a0:0f:28:cf:1a:08:37:
                    bc:7b:cb:6a:a8:e3:73:4d:13:e9:64:45:a9:b9:a1:
                    32:88:7a:cf:84:6c:68:8f:c8:40:3b:ae:97:ec:95:
                    1a:a2:3f:77:90:e4:cc:b8:14:38:b1:18:2b:00:56:
                    c1:3b:7b:c7:53:00:dd:3d:ee:71:f6:a4:fc:ed:a6:
                    7b:04:12:23:74:fc:b0:67:6b:f9:d2:e4:24:98:f7:
                    06
                P:   
                    00:9e:85:f1:6c:8c:3e:d0:04:39:43:86:06:a1:0b:
                    b9:38:60:20:3e:b9:b1:29:ba:3b:26:51:bd:22:7b:
                    32:9d:14:7a:5b:3d:89:65:51:9c:56:64:2a:e1:b3:
                    3b:f0:7e:56:b3:17:70:dc:fb:da:d1:b8:da:1f:e6:
                    8c:02:24:0d:42:f1:19:2e:c6:75:3f:db:22:97:cd:
                    f0:23:5a:21:a3:a6:81:f7:1d:99:fe:78:8f:1c:78:
                    7b:55:70:5d:cb:b7:55:d2:33:a2:33:70:10:6f:1e:
                    ee:8b:21:28:f5:fc:89:48:79:ca:88:fd:bc:de:41:
                    7c:62:97:32:7b:00:48:c5:1a:59:df:be:16:d8:ff:
                    f2:b6:4f:08:87:e4:43:24:76:ad:af:39:dc:dc:49:
                    ba:a9:98:14:e5:61:b3:21:09:4f:df:fe:db:f7:92:
                    f2:39:49:b4:69:4b:7b:9f:97:8a:32:15:8d:e4:12:
                    4e:36:a4:7a:82:24:5b:82:96:99:42:80:10:f2:47:
                    8f:98:c0:bd:74:4b:e1:71:87:40:26:4a:83:d7:3f:
                    57:dd:4a:c8:d9:a0:28:4f:a1:75:2a:c3:14:6b:e6:
                    49:84:3c:f9:c6:b5:13:cb:4e:3a:79:ce:db:42:3a:
                    a3:62:df:47:f9:5a:6b:e3:99:3a:36:9e:2c:bc:96:
                    4e:09
                Q:   
                    00:c1:b5:55:88:f9:0b:b2:38:2b:09:2d:36:28:d3:
                    9d:d5:72:33:07:e2:63:d3:f6:5f:92:fc:4d:55:1a:
                    fd:ba:9f
                G:   
                    35:4d:8c:b1:e9:2c:1e:d2:7b:64:f0:16:38:f1:d0:
                    7c:75:6d:25:8e:e3:82:af:47:85:2a:40:76:f2:a0:
                    bb:04:92:32:83:61:a2:1a:c0:af:97:16:25:aa:5b:
                    a1:36:72:cb:73:a9:a6:5e:c4:7c:9b:0e:10:33:0a:
                    9a:c5:96:25:64:c7:fe:d8:10:cc:bb:d7:a2:22:02:
                    8e:dc:c4:ec:2f:d1:be:ee:5b:af:78:fa:2a:0d:1a:
                    8c:a5:2c:0f:bd:94:11:4b:82:bc:9d:59:25:d6:e1:
                    ab:9c:43:1d:13:84:45:2f:a7:fc:00:e2:13:df:43:
                    2f:da:a8:4d:f8:f7:a7:d5:03:16:13:61:e7:8f:d4:
                    2d:35:c2:eb:61:62:0b:f7:ec:b6:2a:81:b4:42:e8:
                    5b:cf:d3:0b:a5:f9:03:8d:2a:d6:61:d6:33:0f:75:
                    08:26:c0:a4:87:78:b8:58:e6:7f:a5:83:7b:98:8d:
                    c8:75:dd:3c:e9:7e:eb:8d:db:a4:1c:b9:5e:8a:0f:
                    b9:8b:8f:48:e5:8d:a7:72:77:8e:d1:39:24:69:f5:
                    2c:7a:55:4b:84:30:07:54:fd:8d:0d:52:55:d0:05:
                    34:e5:32:28:51:8c:c4:44:29:b7:f6:b5:6b:0a:22:
                    a4:4b:57:32:a2:8f:4c:55:30:3a:57:8b:5d:8e:42:
                    78
        X509v3 extensions:
            X509v3 Basic Constraints: 
                CA:FALSE
            Netscape Comment: 
                OpenSSL Generated Certificate
            X509v3 Subject Key Identifier: 
                90:9E:A1:25:61:9E:12:E5:50:17:B9:F8:3D:02:5A:69:54:4F:92:03
            X509v3 Authority Key Identifier: 
                keyid:D4:97:AA:B6:F2:35:61:EC:38:74:4E:BA:C2:84:5D:E6:C6:85:10:B0

    Signature Algorithm: sha256WithRSAEncryption
         30:11:f8:37:2a:4e:05:51:29:de:08:4e:59:e2:1d:d8:df:71:
         00:24:d2:69:ea:73:b8:e8:b1:0e:b1:1f:c3:92:c5:f4:6c:83:
         c0:43:67:90:19:bd:db:32:d6:00:f9:13:85:ff:b0:57:bb:71:
         4b:06:16:38:21:64:78:9a:90:07:88:ef:e9:46:fb:e7:99:d2:
         39:87:05:a7:a6:7a:83:37:d4:4e:3c:ad:e3:b5:ad:a4:27:e3:
         02:13:ac:c6:df:2d:54:f9:b6:48:ce:5c:ca:6e:c7:4b:4f:7e:
         e3:ec:8d:41:56:fa:cc:e0:e0:44:d6:28:20:94:af:30:23:29:
         b9:7c:f0:25:2c:c5:16:72:43:ae:87:1e:95:9b:a5:7f:86:51:
         f7:a9:6d:b8:71:d3:39:24:bd:62:33:3b:6f:93:86:55:6d:f6:
         a7:e6:9e:19:d6:48:9d:76:78:b4:b4:5d:15:c8:b4:f7:a9:59:
         d7:e1:0c:6d:88:19:83:2b:67:74:e3:73:86:ca:11:bb:a6:a1:
         f3:53:6f:d9:cf:61:ad:64:d0:c0:22:75:3f:7a:22:ac:bd:64:
         d3:a7:82:61:a5:e0:aa:76:58:a5:49:cb:83:ac:fb:5e:3a:9c:
         c0:71:1c:73:47:81:d0:65:9f:79:2d:9c:da:32:41:d8:80:3d:
         1f:fa:64:97
-----BEGIN CERTIFICATE-----
MIIF4DCCBMigAwIBAgIJAJo3HwsP0JolMA0GCSqGSIb3DQEBCwUAMFgxCzAJBgNV
BAYTAkJSMQswCQYDVQQIDAJERjEYMBYGA1UECgwPR292ZXJubyBGZWRlcmFsMQ0w
CwYDVQQLDARDVElSMRMwEQYDVQQDDAp3d3cuZ292LmJyMB4XDTIwMTExNjIyNTU0
NFoXDTIxMTExNjIyNTU0NFowZjELMAkGA1UEBhMCQlIxCzAJBgNVBAgMAlNDMRYw
FAYDVQQHDA1GbG9yaWFub3BvbGlzMRowGAYDVQQKDBFHb3Zlcm5vIGRvIEVzdGFk
bzEWMBQGA1UEAwwNd3d3LnNjLmdvdi5icjCCA0YwggI5BgcqhkjOOAQBMIICLAKC
AQEAnoXxbIw+0AQ5Q4YGoQu5OGAgPrmxKbo7JlG9InsynRR6Wz2JZVGcVmQq4bM7
8H5Wsxdw3Pva0bjaH+aMAiQNQvEZLsZ1P9sil83wI1oho6aB9x2Z/niPHHh7VXBd
y7dV0jOiM3AQbx7uiyEo9fyJSHnKiP283kF8YpcyewBIxRpZ374W2P/ytk8Ih+RD
JHatrznc3Em6qZgU5WGzIQlP3/7b95LyOUm0aUt7n5eKMhWN5BJONqR6giRbgpaZ
QoAQ8kePmMC9dEvhcYdAJkqD1z9X3UrI2aAoT6F1KsMUa+ZJhDz5xrUTy046ec7b
QjqjYt9H+Vpr45k6Np4svJZOCQIhAMG1VYj5C7I4KwktNijTndVyMwfiY9P2X5L8
TVUa/bqfAoIBADVNjLHpLB7Se2TwFjjx0Hx1bSWO44KvR4UqQHbyoLsEkjKDYaIa
wK+XFiWqW6E2cstzqaZexHybDhAzCprFliVkx/7YEMy716IiAo7cxOwv0b7uW694
+ioNGoylLA+9lBFLgrydWSXW4aucQx0ThEUvp/wA4hPfQy/aqE3496fVAxYTYeeP
1C01wuthYgv37LYqgbRC6FvP0wul+QONKtZh1jMPdQgmwKSHeLhY5n+lg3uYjch1
3TzpfuuN26QcuV6KD7mLj0jljadyd47ROSRp9Sx6VUuEMAdU/Y0NUlXQBTTlMihR
jMREKbf2tWsKIqRLVzKij0xVMDpXi12OQngDggEFAAKCAQA1bDbMV0yJAP16ddIU
W7O4E0wVv/DtBKyNaLCQ1tZaWa38FappROJzmrnMQamocO26Km4o0X90yfJqrI4Z
RHAus1fS6moiqOpN5zM47JhQuWNWRlrQNt/PUJoEuGAqVgdkJ1oT4E1e9vBset61
VJkTLIor0F1ut0B0lYDK43KuGIdu/FKyGDQmEb3NIAT6y8ntixnxwiR/lgS1ljPV
8iE7IfT2UpMWScx6akXYvKAPKM8aCDe8e8tqqONzTRPpZEWpuaEyiHrPhGxoj8hA
O66X7JUaoj93kOTMuBQ4sRgrAFbBO3vHUwDdPe5x9qT87aZ7BBIjdPywZ2v50uQk
mPcGo3sweTAJBgNVHRMEAjAAMCwGCWCGSAGG+EIBDQQfFh1PcGVuU1NMIEdlbmVy
YXRlZCBDZXJ0aWZpY2F0ZTAdBgNVHQ4EFgQUkJ6hJWGeEuVQF7n4PQJaaVRPkgMw
HwYDVR0jBBgwFoAU1JeqtvI1Yew4dE66woRd5saFELAwDQYJKoZIhvcNAQELBQAD
ggEBADAR+DcqTgVRKd4ITlniHdjfcQAk0mnqc7josQ6xH8OSxfRsg8BDZ5AZvdsy
1gD5E4X/sFe7cUsGFjghZHiakAeI7+lG++eZ0jmHBaemeoM31E48reO1raQn4wIT
rMbfLVT5tkjOXMpux0tPfuPsjUFW+szg4ETWKCCUrzAjKbl88CUsxRZyQ66HHpWb
pX+GUfepbbhx0zkkvWIzO2+ThlVt9qfmnhnWSJ12eLS0XRXItPepWdfhDG2IGYMr
Z3Tjc4bKEbumofNTb9nPYa1k0MAidT96Iqy9ZNOngmGl4Kp2WKVJy4Os+146nMBx
HHNHgdBln3ktnNoyQdiAPR/6ZJc=
-----END CERTIFICATE-----
