Certificate:
    Data:
        Version: 3 (0x2)
        Serial Number: 11112384737930418726 (0x9a371f0b0fd09a26)
    Signature Algorithm: sha256WithRSAEncryption
        Issuer: C=BR, ST=DF, O=Governo Federal, OU=CTIR, CN=www.gov.br
        Validity
            Not Before: Nov 16 22:56:23 2020 GMT
            Not After : Nov 16 22:56:23 2021 GMT
        Subject: C=BR, ST=SP, L=Sao Paulo, O=Governo do Estado, CN=www.sp.gov.br
        Subject Public Key Info:
            Public Key Algorithm: dsaEncryption
                pub: 
                    00:99:71:6f:46:88:c9:fe:ea:c7:31:b0:98:8a:79:
                    ed:83:1c:8b:20:87:7b:b4:ef:11:f2:c5:8b:c8:88:
                    53:52:50:c2:58:65:73:94:79:3d:7f:e9:3e:1f:54:
                    d8:23:9d:43:3c:07:29:b7:94:39:93:82:67:2b:85:
                    29:42:43:f1:e1:54:5e:8e:7b:08:c1:ef:88:1d:e5:
                    4c:9d:21:8c:08:42:c2:d1:f5:a1:76:0e:0e:7f:be:
                    7f:94:9a:c5:0e:2b:70:98:3b:04:49:77:61:86:a5:
                    1a:3d:05:3f:35:4f:62:06:14:94:78:9b:9d:be:0e:
                    73:bf:3c:e6:5b:c3:70:65:70:b0:07:e3:96:10:95:
                    65:8f:d5:12:a4:b5:79:10:ef:e7:f5:c3:1d:52:8c:
                    66:d0:75:da:34:94:f1:88:ab:12:c8:be:c5:9a:00:
                    e3:5c:73:da:bd:f6:6e:7c:3e:7a:ad:3f:78:61:f3:
                    6a:3a:af:93:ca:19:42:a0:37:49:7f:35:0c:5e:64:
                    a4:af:ce:dd:65:27:34:41:6c:2d:ac:61:d8:60:d4:
                    0b:9b:cb:58:49:79:21:86:3f:d4:9e:d1:3e:3c:8a:
                    e4:c7:03:7e:03:69:cf:f8:b2:4d:d4:ff:9b:d1:ee:
                    37:c1:aa:44:90:72:01:63:f0:2c:f4:1b:e6:8d:c7:
                    82:5a
                P:   
                    00:b1:1b:dc:94:57:37:88:ec:37:24:95:e4:8d:f3:
                    c7:7f:7f:48:c3:b0:5f:34:e7:be:d7:9a:cf:38:51:
                    b8:b5:26:e6:7c:53:9b:ed:e2:f6:e4:b3:f8:85:e5:
                    6b:a0:db:22:3b:ec:e9:c3:ce:60:af:06:3b:9a:54:
                    58:57:92:77:21:64:d0:3d:3f:df:2f:d6:52:b4:b0:
                    62:71:5c:75:df:65:d1:1e:3a:17:1c:1f:6f:57:c3:
                    14:48:63:5f:9a:01:4b:2f:bf:1b:a0:9a:c7:ec:7f:
                    68:f1:f1:13:5c:74:44:27:f5:0e:87:8b:cf:61:7d:
                    ee:0e:54:df:eb:c2:34:4b:e7:f1:af:9b:ac:e2:74:
                    a7:4b:a1:cd:24:67:55:f2:32:f6:a7:3e:52:23:e9:
                    67:16:50:90:ef:42:51:43:ff:11:ce:31:c6:4e:87:
                    7d:ff:c3:32:32:1c:e0:ea:f0:a7:5d:7b:18:f2:8f:
                    b5:e9:32:27:8b:7d:b6:ab:ee:a4:6c:7c:5b:1c:0c:
                    2a:c5:f8:f5:74:90:3e:69:20:fd:3d:ed:ff:44:d2:
                    a7:37:dc:97:ad:7b:ed:6e:08:65:a7:8f:bb:a5:f5:
                    da:5c:47:24:ff:9b:7a:84:a7:ca:7d:5a:d6:ac:4a:
                    47:ec:98:36:66:93:02:86:3c:d0:d2:8d:8e:13:d1:
                    75:5d
                Q:   
                    00:81:86:84:f1:0d:3f:80:31:a3:79:64:f2:51:19:
                    68:d5:ce:f9:f5:a4:b0:af:2a:cc:37:56:33:cc:58:
                    6d:69:29
                G:   
                    38:89:70:13:94:3c:48:06:7d:35:13:56:89:ab:95:
                    19:25:f1:b5:5f:91:e0:78:dc:6a:ca:e9:f4:f4:68:
                    14:9c:4c:8e:c4:bd:cf:be:26:61:72:86:92:0b:a0:
                    59:3b:12:63:65:30:32:f3:7a:33:cd:e5:02:a4:7f:
                    9b:32:ab:b2:02:10:3d:47:0e:2c:f9:a2:b2:16:84:
                    86:f4:0a:8c:5d:49:08:45:4f:f9:7f:26:95:15:38:
                    19:15:4e:a7:f8:76:f9:19:83:d7:61:08:20:55:28:
                    52:a9:00:2a:08:fe:a3:0c:84:3e:c4:cb:70:2c:56:
                    94:cc:3e:95:bd:80:36:11:fd:06:57:7f:bd:29:ad:
                    71:8f:4b:57:ec:0f:34:7b:1b:56:0b:3c:96:ed:15:
                    3d:76:fd:6e:e1:27:f1:ac:78:38:f6:7b:66:8e:0e:
                    3a:a2:63:49:47:f5:f3:a3:72:73:04:c0:84:09:5f:
                    f7:65:dc:5d:fd:81:4a:09:89:e1:88:9c:c9:2c:31:
                    83:c1:70:33:fe:66:dc:3c:b6:f5:46:31:c5:d0:e8:
                    b7:ed:6b:b3:65:9f:df:97:01:e9:3b:0e:a7:96:76:
                    90:91:04:c5:63:a1:1b:7d:7b:ef:5c:81:75:1c:59:
                    7e:17:83:f7:e0:68:95:2a:51:d0:d9:2e:91:35:ff:
                    0a
        X509v3 extensions:
            X509v3 Basic Constraints: 
                CA:FALSE
            Netscape Comment: 
                OpenSSL Generated Certificate
            X509v3 Subject Key Identifier: 
                E4:E1:BC:04:4C:99:A0:2C:C8:65:78:35:1C:8C:52:EC:E3:AF:44:2C
            X509v3 Authority Key Identifier: 
                keyid:D4:97:AA:B6:F2:35:61:EC:38:74:4E:BA:C2:84:5D:E6:C6:85:10:B0

    Signature Algorithm: sha256WithRSAEncryption
         1a:0d:49:bd:67:4a:7f:f3:c2:1b:14:a0:a4:35:18:d4:a4:a7:
         51:a7:be:37:14:58:95:0b:a1:00:10:3d:90:a4:1e:64:83:d9:
         9b:b8:09:8e:8c:5c:98:35:26:19:3b:00:25:33:5e:5c:e5:a4:
         69:6f:2b:0e:c0:85:68:40:77:f5:97:1c:e0:b0:7e:f7:96:98:
         ea:c6:09:13:99:61:62:38:b4:36:d9:9e:a2:27:a5:f6:89:71:
         62:2f:78:4a:41:78:ec:64:c4:cb:01:bd:b1:cf:5f:99:31:10:
         ce:1e:86:bb:5e:c9:5d:3e:9a:8d:6b:b7:d0:bd:9b:cc:0e:60:
         e4:c8:8a:3f:89:94:e5:79:95:42:bf:55:cc:4d:db:84:69:07:
         a7:42:fd:47:07:ca:f1:77:35:8d:28:51:50:a5:c5:e9:7f:e0:
         38:64:a8:c0:cb:d5:09:2f:f1:62:62:88:4e:88:8e:b0:0c:cd:
         38:bf:30:c6:5a:6f:29:37:62:ee:90:f9:74:f9:30:a5:39:90:
         b7:c4:4d:d3:ae:01:4c:9d:ff:ec:cf:b3:fa:2c:04:c4:05:70:
         3b:4b:28:36:79:19:7b:43:18:fc:df:57:e8:36:be:c7:c5:67:
         30:27:06:1c:92:5c:c1:b4:99:cd:af:54:07:02:21:29:cc:81:
         95:41:b1:49
-----BEGIN CERTIFICATE-----
MIIF3TCCBMWgAwIBAgIJAJo3HwsP0JomMA0GCSqGSIb3DQEBCwUAMFgxCzAJBgNV
BAYTAkJSMQswCQYDVQQIDAJERjEYMBYGA1UECgwPR292ZXJubyBGZWRlcmFsMQ0w
CwYDVQQLDARDVElSMRMwEQYDVQQDDAp3d3cuZ292LmJyMB4XDTIwMTExNjIyNTYy
M1oXDTIxMTExNjIyNTYyM1owYjELMAkGA1UEBhMCQlIxCzAJBgNVBAgMAlNQMRIw
EAYDVQQHDAlTYW8gUGF1bG8xGjAYBgNVBAoMEUdvdmVybm8gZG8gRXN0YWRvMRYw
FAYDVQQDDA13d3cuc3AuZ292LmJyMIIDRzCCAjkGByqGSM44BAEwggIsAoIBAQCx
G9yUVzeI7DckleSN88d/f0jDsF80577Xms84Ubi1JuZ8U5vt4vbks/iF5Wug2yI7
7OnDzmCvBjuaVFhXknchZNA9P98v1lK0sGJxXHXfZdEeOhccH29XwxRIY1+aAUsv
vxugmsfsf2jx8RNcdEQn9Q6Hi89hfe4OVN/rwjRL5/Gvm6zidKdLoc0kZ1XyMvan
PlIj6WcWUJDvQlFD/xHOMcZOh33/wzIyHODq8Kddexjyj7XpMieLfbar7qRsfFsc
DCrF+PV0kD5pIP097f9E0qc33Jete+1uCGWnj7ul9dpcRyT/m3qEp8p9WtasSkfs
mDZmkwKGPNDSjY4T0XVdAiEAgYaE8Q0/gDGjeWTyURlo1c759aSwryrMN1YzzFht
aSkCggEAOIlwE5Q8SAZ9NRNWiauVGSXxtV+R4Hjcasrp9PRoFJxMjsS9z74mYXKG
kgugWTsSY2UwMvN6M83lAqR/mzKrsgIQPUcOLPmishaEhvQKjF1JCEVP+X8mlRU4
GRVOp/h2+RmD12EIIFUoUqkAKgj+owyEPsTLcCxWlMw+lb2ANhH9Bld/vSmtcY9L
V+wPNHsbVgs8lu0VPXb9buEn8ax4OPZ7Zo4OOqJjSUf186NycwTAhAlf92XcXf2B
SgmJ4YicySwxg8FwM/5m3Dy29UYxxdDot+1rs2Wf35cB6TsOp5Z2kJEExWOhG317
71yBdRxZfheD9+BolSpR0NkukTX/CgOCAQYAAoIBAQCZcW9GiMn+6scxsJiKee2D
HIsgh3u07xHyxYvIiFNSUMJYZXOUeT1/6T4fVNgjnUM8Bym3lDmTgmcrhSlCQ/Hh
VF6OewjB74gd5UydIYwIQsLR9aF2Dg5/vn+UmsUOK3CYOwRJd2GGpRo9BT81T2IG
FJR4m52+DnO/POZbw3BlcLAH45YQlWWP1RKktXkQ7+f1wx1SjGbQddo0lPGIqxLI
vsWaAONcc9q99m58PnqtP3hh82o6r5PKGUKgN0l/NQxeZKSvzt1lJzRBbC2sYdhg
1Auby1hJeSGGP9Se0T48iuTHA34Dac/4sk3U/5vR7jfBqkSQcgFj8Cz0G+aNx4Ja
o3sweTAJBgNVHRMEAjAAMCwGCWCGSAGG+EIBDQQfFh1PcGVuU1NMIEdlbmVyYXRl
ZCBDZXJ0aWZpY2F0ZTAdBgNVHQ4EFgQU5OG8BEyZoCzIZXg1HIxS7OOvRCwwHwYD
VR0jBBgwFoAU1JeqtvI1Yew4dE66woRd5saFELAwDQYJKoZIhvcNAQELBQADggEB
ABoNSb1nSn/zwhsUoKQ1GNSkp1GnvjcUWJULoQAQPZCkHmSD2Zu4CY6MXJg1Jhk7
ACUzXlzlpGlvKw7AhWhAd/WXHOCwfveWmOrGCROZYWI4tDbZnqInpfaJcWIveEpB
eOxkxMsBvbHPX5kxEM4ehrteyV0+mo1rt9C9m8wOYOTIij+JlOV5lUK/VcxN24Rp
B6dC/UcHyvF3NY0oUVClxel/4DhkqMDL1Qkv8WJiiE6IjrAMzTi/MMZabyk3Yu6Q
+XT5MKU5kLfETdOuAUyd/+zPs/osBMQFcDtLKDZ5GXtDGPzfV+g2vsfFZzAnBhyS
XMG0mc2vVAcCISnMgZVBsUk=
-----END CERTIFICATE-----
