Certificate:
    Data:
        Version: 3 (0x2)
        Serial Number: 11842671803654362531 (0xa4599f42a05a55a3)
    Signature Algorithm: sha256WithRSAEncryption
        Issuer: C=US, ST=Some-State, O=DigiCert Inc, OU=www.digicert.com, CN=DigiCert Global Root CA
        Validity
            Not Before: Nov 22 14:15:17 2018 GMT
            Not After : Nov 22 14:15:17 2019 GMT
        Subject: C=US, ST=Michigan, L=Dearborn, O=Ford Motor Company, OU=Akamai SAN SSL OV, CN=www.ford.com
        Subject Public Key Info:
            Public Key Algorithm: rsaEncryption
                Public-Key: (1024 bit)
                Modulus:
                    00:bb:92:3f:6b:93:1e:f2:cf:09:2c:07:74:3a:13:
                    9b:0c:ce:fe:3f:f5:f7:88:22:32:49:f6:16:a7:6c:
                    ea:cb:89:b7:1f:5e:1a:e5:2c:e0:38:39:f0:17:ed:
                    74:4b:70:37:08:58:5c:23:e1:38:37:36:e8:8b:19:
                    b7:76:64:0a:b8:ee:7f:b8:96:b3:0d:28:0a:29:f4:
                    d9:64:02:c1:4d:12:05:e0:21:f7:38:31:94:13:e5:
                    f5:84:aa:39:68:33:98:e1:48:15:06:ac:97:df:c2:
                    1b:75:de:01:cf:44:3d:1f:ac:9a:6d:0f:7f:f8:ae:
                    d1:a1:be:d1:84:df:7c:bc:f9
                Exponent: 65537 (0x10001)
        X509v3 extensions:
            X509v3 Basic Constraints: 
                CA:FALSE
            Netscape Comment: 
                OpenSSL Generated Certificate
            X509v3 Subject Key Identifier: 
                F6:55:9B:14:1A:E6:D4:38:A6:CD:89:5D:A1:A8:D8:D6:12:20:95:7E
            X509v3 Authority Key Identifier: 
                keyid:0F:A6:7D:57:59:12:93:77:31:56:CB:6C:63:6D:A4:11:89:08:7B:68

    Signature Algorithm: sha256WithRSAEncryption
         2e:58:b6:bf:de:53:94:a1:c4:36:d9:2a:b5:ea:bd:30:96:12:
         5c:fc:12:cd:38:99:67:6f:c5:09:4f:12:e1:11:ef:3a:83:cd:
         2a:9a:25:9d:7c:12:87:4f:d5:d3:11:2b:f1:3d:7c:4b:33:73:
         56:98:fc:86:63:99:34:07:98:32:5a:9a:43:41:ce:45:ba:c6:
         5f:db:68:78:cb:52:a3:d3:02:df:26:48:57:4f:74:d9:68:a2:
         4f:5e:41:44:5c:c1:dc:fe:82:bc:67:5c:c2:d9:d8:9b:aa:cd:
         48:2f:86:de:b5:6e:a8:c9:63:d6:86:d1:8e:aa:c3:2c:6d:2e:
         cd:ce:f0:79:b2:cd:b5:70:e5:0e:3d:86:18:cd:b4:4b:1f:bc:
         68:07:da:1f:5a:b5:7b:da:be:19:47:df:b8:5a:d6:bd:c8:51:
         80:2f:c7:f6:ca:6f:b6:c0:2e:14:61:d2:51:b9:72:fe:57:61:
         45:8d:8b:51:3b:b9:ba:ed:8a:55:89:94:be:c2:db:ba:de:3d:
         c4:11:93:71:b0:cd:f4:55:b8:e9:ef:0f:75:22:9e:1d:6c:b0:
         30:cc:68:9d:49:00:6f:ea:e2:f9:b9:eb:bc:cf:8a:93:90:16:
         d0:77:fa:ed:09:09:57:d6:74:6f:a1:75:25:6f:8b:35:7d:8f:
         8f:2d:8e:46
-----BEGIN CERTIFICATE-----
MIIDdDCCAlygAwIBAgIJAKRZn0KgWlWjMA0GCSqGSIb3DQEBCwUAMHYxCzAJBgNV
BAYTAlVTMRMwEQYDVQQIDApTb21lLVN0YXRlMRUwEwYDVQQKDAxEaWdpQ2VydCBJ
bmMxGTAXBgNVBAsMEHd3dy5kaWdpY2VydC5jb20xIDAeBgNVBAMMF0RpZ2lDZXJ0
IEdsb2JhbCBSb290IENBMB4XDTE4MTEyMjE0MTUxN1oXDTE5MTEyMjE0MTUxN1ow
gYMxCzAJBgNVBAYTAlVTMREwDwYDVQQIDAhNaWNoaWdhbjERMA8GA1UEBwwIRGVh
cmJvcm4xGzAZBgNVBAoMEkZvcmQgTW90b3IgQ29tcGFueTEaMBgGA1UECwwRQWth
bWFpIFNBTiBTU0wgT1YxFTATBgNVBAMMDHd3dy5mb3JkLmNvbTCBnzANBgkqhkiG
9w0BAQEFAAOBjQAwgYkCgYEAu5I/a5Me8s8JLAd0OhObDM7+P/X3iCIySfYWp2zq
y4m3H14a5SzgODnwF+10S3A3CFhcI+E4Nzboixm3dmQKuO5/uJazDSgKKfTZZALB
TRIF4CH3ODGUE+X1hKo5aDOY4UgVBqyX38Ibdd4Bz0Q9H6yabQ9/+K7Rob7RhN98
vPkCAwEAAaN7MHkwCQYDVR0TBAIwADAsBglghkgBhvhCAQ0EHxYdT3BlblNTTCBH
ZW5lcmF0ZWQgQ2VydGlmaWNhdGUwHQYDVR0OBBYEFPZVmxQa5tQ4ps2JXaGo2NYS
IJV+MB8GA1UdIwQYMBaAFA+mfVdZEpN3MVbLbGNtpBGJCHtoMA0GCSqGSIb3DQEB
CwUAA4IBAQAuWLa/3lOUocQ22Sq16r0wlhJc/BLNOJlnb8UJTxLhEe86g80qmiWd
fBKHT9XTESvxPXxLM3NWmPyGY5k0B5gyWppDQc5FusZf22h4y1Kj0wLfJkhXT3TZ
aKJPXkFEXMHc/oK8Z1zC2dibqs1IL4betW6oyWPWhtGOqsMsbS7NzvB5ss21cOUO
PYYYzbRLH7xoB9ofWrV72r4ZR9+4Wta9yFGAL8f2ym+2wC4UYdJRuXL+V2FFjYtR
O7m67YpViZS+wtu63j3EEZNxsM30Vbjp7w91Ip4dbLAwzGidSQBv6uL5ueu8z4qT
kBbQd/rtCQlX1nRvoXUlb4s1fY+PLY5G
-----END CERTIFICATE-----
