Certificate:
    Data:
        Version: 3 (0x2)
        Serial Number: 16593891146732528153 (0xe64958146a7de219)
    Signature Algorithm: sha256WithRSAEncryption
        Issuer: C=BR, ST=Distrito Federal, O=Governo Federal, OU=Ministerio da Saude, CN=saude.gov.br
        Validity
            Not Before: Jul 30 18:53:42 2021 GMT
            Not After : Jul 30 18:53:42 2022 GMT
        Subject: C=BR, ST=Distrito Federal, L=Brasilia, O=Governo Federal, OU=Ministerio da Saude, CN=saude.gov.br
        Subject Public Key Info:
            Public Key Algorithm: rsaEncryption
                Public-Key: (2048 bit)
                Modulus:
                    00:ca:05:be:2c:6c:34:72:16:d6:5a:d0:6f:55:56:
                    39:d0:0c:5c:ca:88:f3:27:71:55:5c:10:70:59:e4:
                    52:d3:2e:bd:c0:fc:b0:b4:aa:4b:a6:03:cd:ce:3c:
                    5f:7f:8f:62:33:5d:c6:fc:bd:69:10:75:ce:3b:f5:
                    42:b3:da:12:70:0d:6b:18:73:5b:90:73:cb:e3:f2:
                    f5:ae:77:8f:90:26:c9:13:f8:84:25:4d:05:91:c6:
                    9f:d9:f4:1b:cb:14:bf:4e:1a:01:d3:a6:ae:59:6b:
                    30:2e:e9:08:a7:c5:3b:07:50:ef:50:19:c5:4d:9b:
                    5f:20:6f:18:5c:79:31:64:a9:4c:9f:04:87:5e:2f:
                    7e:a2:db:52:48:bc:87:53:2b:4b:7f:3b:40:f7:3f:
                    e6:43:b8:e3:1f:1b:6e:e0:bb:5c:f8:92:16:0e:8a:
                    8c:f5:8e:28:25:47:fe:f7:4f:b9:55:e4:6b:1e:89:
                    81:3a:9d:dc:91:8e:55:ed:5b:b7:80:09:9a:48:68:
                    bf:e0:0d:68:65:fd:df:d5:73:15:50:19:b5:0a:d8:
                    38:30:15:41:93:ba:10:28:4b:f0:e3:48:7a:ae:99:
                    f7:8b:ad:9c:69:87:5b:cf:21:2c:3b:32:51:37:34:
                    08:93:1a:32:f0:9e:d2:da:92:2e:11:89:80:ef:06:
                    5a:7b
                Exponent: 65537 (0x10001)
        X509v3 extensions:
            X509v3 Basic Constraints: 
                CA:FALSE
            Netscape Comment: 
                OpenSSL Generated Certificate
            X509v3 Subject Key Identifier: 
                CD:A1:33:D6:84:88:0E:95:23:0A:6C:A5:33:08:76:37:B6:45:74:0A
            X509v3 Authority Key Identifier: 
                keyid:7D:08:F2:C2:ED:49:0A:AC:FC:27:F9:07:4A:59:EA:8B:17:BA:05:F6

    Signature Algorithm: sha256WithRSAEncryption
         64:a5:6f:4c:9c:17:67:be:f6:9c:a6:1d:3b:50:52:ee:59:03:
         7f:fa:7a:2a:8f:f3:bc:4a:02:3f:9c:06:4d:28:51:58:2b:44:
         a0:bb:ea:89:f3:cf:db:f0:8f:eb:7d:99:6e:c9:27:dc:f6:dc:
         df:b5:00:47:7f:ec:a4:c8:22:61:82:78:7a:be:8f:c9:18:3a:
         37:c9:cb:aa:59:ff:03:a7:5f:4b:86:0b:57:c5:fa:04:26:12:
         70:98:e2:f9:5e:75:fe:77:c1:69:9a:46:b4:02:1b:97:b2:6f:
         14:44:25:0b:db:54:6b:d1:dc:f5:0f:31:f1:bf:19:77:97:97:
         79:e2:58:39:2c:67:9c:3f:31:27:3c:74:b4:f6:88:17:9f:f6:
         dc:79:36:d6:e1:b6:20:a9:89:9c:ff:e3:e9:6e:7e:61:c1:e2:
         e5:b7:69:27:e1:bb:57:9e:6c:8e:01:5f:af:12:45:0f:b0:bf:
         d6:12:5b:d3:27:d2:0e:9d:b7:5f:47:a7:65:41:d6:b6:8e:49:
         ff:7a:e4:b4:5e:60:51:21:e3:5e:5c:e0:f0:57:3d:60:4f:6f:
         0c:42:55:dc:77:90:4d:ba:11:56:dc:e7:51:29:6f:2a:70:5b:
         bd:d2:ee:41:91:b7:1d:9a:2f:52:d6:5e:e7:5b:cf:98:54:14:
         25:70:ed:cc
-----BEGIN CERTIFICATE-----
MIIEADCCAuigAwIBAgIJAOZJWBRqfeIZMA0GCSqGSIb3DQEBCwUAMHcxCzAJBgNV
BAYTAkJSMRkwFwYDVQQIDBBEaXN0cml0byBGZWRlcmFsMRgwFgYDVQQKDA9Hb3Zl
cm5vIEZlZGVyYWwxHDAaBgNVBAsME01pbmlzdGVyaW8gZGEgU2F1ZGUxFTATBgNV
BAMMDHNhdWRlLmdvdi5icjAeFw0yMTA3MzAxODUzNDJaFw0yMjA3MzAxODUzNDJa
MIGKMQswCQYDVQQGEwJCUjEZMBcGA1UECAwQRGlzdHJpdG8gRmVkZXJhbDERMA8G
A1UEBwwIQnJhc2lsaWExGDAWBgNVBAoMD0dvdmVybm8gRmVkZXJhbDEcMBoGA1UE
CwwTTWluaXN0ZXJpbyBkYSBTYXVkZTEVMBMGA1UEAwwMc2F1ZGUuZ292LmJyMIIB
IjANBgkqhkiG9w0BAQEFAAOCAQ8AMIIBCgKCAQEAygW+LGw0chbWWtBvVVY50Axc
yojzJ3FVXBBwWeRS0y69wPywtKpLpgPNzjxff49iM13G/L1pEHXOO/VCs9oScA1r
GHNbkHPL4/L1rnePkCbJE/iEJU0Fkcaf2fQbyxS/ThoB06auWWswLukIp8U7B1Dv
UBnFTZtfIG8YXHkxZKlMnwSHXi9+ottSSLyHUytLfztA9z/mQ7jjHxtu4Ltc+JIW
DoqM9Y4oJUf+90+5VeRrHomBOp3ckY5V7Vu3gAmaSGi/4A1oZf3f1XMVUBm1Ctg4
MBVBk7oQKEvw40h6rpn3i62caYdbzyEsOzJRNzQIkxoy8J7S2pIuEYmA7wZaewID
AQABo3sweTAJBgNVHRMEAjAAMCwGCWCGSAGG+EIBDQQfFh1PcGVuU1NMIEdlbmVy
YXRlZCBDZXJ0aWZpY2F0ZTAdBgNVHQ4EFgQUzaEz1oSIDpUjCmylMwh2N7ZFdAow
HwYDVR0jBBgwFoAUfQjywu1JCqz8J/kHSlnqixe6BfYwDQYJKoZIhvcNAQELBQAD
ggEBAGSlb0ycF2e+9pymHTtQUu5ZA3/6eiqP87xKAj+cBk0oUVgrRKC76onzz9vw
j+t9mW7JJ9z23N+1AEd/7KTIImGCeHq+j8kYOjfJy6pZ/wOnX0uGC1fF+gQmEnCY
4vledf53wWmaRrQCG5eybxREJQvbVGvR3PUPMfG/GXeXl3niWDksZ5w/MSc8dLT2
iBef9tx5NtbhtiCpiZz/4+lufmHB4uW3aSfhu1eebI4BX68SRQ+wv9YSW9Mn0g6d
t19Hp2VB1raOSf965LReYFEh415c4PBXPWBPbwxCVdx3kE26EVbc51EpbypwW73S
7kGRtx2aL1LWXudbz5hUFCVw7cw=
-----END CERTIFICATE-----
